   1              		.file	"init.c"
   9              	.Ltext0:
  10              		.cfi_sections	.debug_frame
  11              		.section	.text.board_init,"ax",%progbits
  12              		.align	2
  13              		.global	board_init
  15              	board_init:
  16              	.LFB53:
  17              		.file 1 "board/compal_e99/init.c"
   1:board/compal_e99/init.c **** /* Initialization for the Compal E99 (Motorola C155) */
   2:board/compal_e99/init.c **** 
   3:board/compal_e99/init.c **** /* (C) 2010 by Harald Welte <laforge@gnumonks.org>
   4:board/compal_e99/init.c ****  * (C) 2010 by Steve Markgraf <steve@steve-m.de>
   5:board/compal_e99/init.c ****  *
   6:board/compal_e99/init.c ****  * All Rights Reserved
   7:board/compal_e99/init.c ****  *
   8:board/compal_e99/init.c ****  * This program is free software; you can redistribute it and/or modify
   9:board/compal_e99/init.c ****  * it under the terms of the GNU General Public License as published by
  10:board/compal_e99/init.c ****  * the Free Software Foundation; either version 2 of the License, or
  11:board/compal_e99/init.c ****  * (at your option) any later version.
  12:board/compal_e99/init.c ****  *
  13:board/compal_e99/init.c ****  * This program is distributed in the hope that it will be useful,
  14:board/compal_e99/init.c ****  * but WITHOUT ANY WARRANTY; without even the implied warranty of
  15:board/compal_e99/init.c ****  * MERCHANTABILITY or FITNESS FOR A PARTICULAR PURPOSE.  See the
  16:board/compal_e99/init.c ****  * GNU General Public License for more details.
  17:board/compal_e99/init.c ****  *
  18:board/compal_e99/init.c ****  * You should have received a copy of the GNU General Public License along
  19:board/compal_e99/init.c ****  * with this program; if not, write to the Free Software Foundation, Inc.,
  20:board/compal_e99/init.c ****  * 51 Franklin Street, Fifth Floor, Boston, MA 02110-1301 USA.
  21:board/compal_e99/init.c ****  *
  22:board/compal_e99/init.c ****  */
  23:board/compal_e99/init.c **** 
  24:board/compal_e99/init.c **** #include <stdint.h>
  25:board/compal_e99/init.c **** #include <stdio.h>
  26:board/compal_e99/init.c **** 
  27:board/compal_e99/init.c **** #include <debug.h>
  28:board/compal_e99/init.c **** #include <ctors.h>
  29:board/compal_e99/init.c **** #include <memory.h>
  30:board/compal_e99/init.c **** #include <board.h>
  31:board/compal_e99/init.c **** #include <keypad.h>
  32:board/compal_e99/init.c **** #include <console.h>
  33:board/compal_e99/init.c **** #include <flash/cfi_flash.h>
  34:board/compal_e99/init.c **** 
  35:board/compal_e99/init.c **** #include <calypso/irq.h>
  36:board/compal_e99/init.c **** #include <calypso/clock.h>
  37:board/compal_e99/init.c **** #include <calypso/dma.h>
  38:board/compal_e99/init.c **** #include <calypso/rtc.h>
  39:board/compal_e99/init.c **** #include <calypso/timer.h>
  40:board/compal_e99/init.c **** #include <uart.h>
  41:board/compal_e99/init.c **** #include <calypso/backlight.h>
  42:board/compal_e99/init.c **** 
  43:board/compal_e99/init.c **** #include <comm/sercomm.h>
  44:board/compal_e99/init.c **** #include <comm/timer.h>
  45:board/compal_e99/init.c **** 
  46:board/compal_e99/init.c **** #include <abb/twl3025.h>
  47:board/compal_e99/init.c **** #include <rf/trf6151.h>
  48:board/compal_e99/init.c **** 
  49:board/compal_e99/init.c **** #include <fb/framebuffer.h>
  50:board/compal_e99/init.c **** #include "../compal/keymap.h"
  51:board/compal_e99/init.c **** 
  52:board/compal_e99/init.c **** #define ARMIO_LATCH_OUT 0xfffe4802
  53:board/compal_e99/init.c **** #define IO_CNTL_REG	0xfffe4804
  54:board/compal_e99/init.c **** #define ASIC_CONF_REG	0xfffef008
  55:board/compal_e99/init.c **** 
  56:board/compal_e99/init.c **** static void board_io_init(void)
  57:board/compal_e99/init.c **** {
  58:board/compal_e99/init.c **** 	uint16_t reg;
  59:board/compal_e99/init.c **** 
  60:board/compal_e99/init.c **** 	reg = readw(ASIC_CONF_REG);
  61:board/compal_e99/init.c **** 	/* LCD Set I/O(3) / SA0 to I/O(3) mode */
  62:board/compal_e99/init.c **** 	reg &= ~( (1 << 12) | (1 << 10) | (1 << 7) | (1 << 1)) ;
  63:board/compal_e99/init.c **** 	/* don't set function pins to I2C Mode, C155 uses UWire */
  64:board/compal_e99/init.c **** 	/* TWL3025: Set SPI+RIF RX clock to rising edge */
  65:board/compal_e99/init.c **** 	reg |= (1 << 13) | (1 << 14);
  66:board/compal_e99/init.c **** 	writew(reg, ASIC_CONF_REG);
  67:board/compal_e99/init.c **** 
  68:board/compal_e99/init.c **** 	/* LCD Set I/O(3) to output mode and enable C155 backlight (IO1) */
  69:board/compal_e99/init.c **** 	/* FIXME: Put the display backlight control to backlight.c */
  70:board/compal_e99/init.c **** 	reg = readw(IO_CNTL_REG);
  71:board/compal_e99/init.c **** 	reg &= ~( (1 << 3) | (1 << 1));
  72:board/compal_e99/init.c **** 	writew(reg, IO_CNTL_REG);
  73:board/compal_e99/init.c **** 
  74:board/compal_e99/init.c **** 	/* LCD Set I/O(3) output low */
  75:board/compal_e99/init.c **** 	reg = readw(ARMIO_LATCH_OUT);
  76:board/compal_e99/init.c **** 	reg &= ~(1 << 3);
  77:board/compal_e99/init.c **** 	reg |= (1 << 1);
  78:board/compal_e99/init.c **** 	writew(reg, ARMIO_LATCH_OUT);
  79:board/compal_e99/init.c **** }
  80:board/compal_e99/init.c **** 
  81:board/compal_e99/init.c **** void board_init(int with_irq)
  82:board/compal_e99/init.c **** {
  18              		.loc 1 82 0
  19              		.cfi_startproc
  20              		@ args = 0, pretend = 0, frame = 0
  21              		@ frame_needed = 0, uses_anonymous_args = 0
  22              	.LVL0:
  23 0000 17402DE9 		stmfd	sp!, {r0, r1, r2, r4, lr}
  24              	.LCFI0:
  25              		.cfi_def_cfa_offset 20
  26              		.loc 1 82 0
  27 0004 0040A0E1 		mov	r4, r0
  28              		.cfi_offset 14, -4
  29              		.cfi_offset 4, -8
  30              		.cfi_offset 2, -12
  31              		.cfi_offset 1, -16
  32              		.cfi_offset 0, -20
  83:board/compal_e99/init.c **** 	/* Disable watchdog (compal loader leaves it enabled) */
  84:board/compal_e99/init.c **** 	wdog_enable(0);
  33              		.loc 1 84 0
  34 0008 0000A0E3 		mov	r0, #0
  35              	.LVL1:
  36 000c FEFFFFEB 		bl	wdog_enable
  85:board/compal_e99/init.c **** 
  86:board/compal_e99/init.c **** 	/* Configure memory interface */
  87:board/compal_e99/init.c **** 	calypso_mem_cfg(CALYPSO_nCS0, 3, CALYPSO_MEM_16bit, 1);
  37              		.loc 1 87 0
  38 0010 0120A0E3 		mov	r2, #1
  39 0014 0230A0E1 		mov	r3, r2
  40 0018 0000A0E3 		mov	r0, #0
  41 001c 0310A0E3 		mov	r1, #3
  42 0020 FEFFFFEB 		bl	calypso_mem_cfg
  88:board/compal_e99/init.c **** 	calypso_mem_cfg(CALYPSO_nCS1, 3, CALYPSO_MEM_16bit, 1);
  43              		.loc 1 88 0
  44 0024 0120A0E3 		mov	r2, #1
  45 0028 0230A0E1 		mov	r3, r2
  46 002c 0200A0E3 		mov	r0, #2
  47 0030 0310A0E3 		mov	r1, #3
  48 0034 FEFFFFEB 		bl	calypso_mem_cfg
  89:board/compal_e99/init.c **** 	calypso_mem_cfg(CALYPSO_nCS2, 5, CALYPSO_MEM_16bit, 1);
  49              		.loc 1 89 0
  50 0038 0120A0E3 		mov	r2, #1
  51 003c 0230A0E1 		mov	r3, r2
  52 0040 0400A0E3 		mov	r0, #4
  53 0044 0510A0E3 		mov	r1, #5
  54 0048 FEFFFFEB 		bl	calypso_mem_cfg
  90:board/compal_e99/init.c **** 	calypso_mem_cfg(CALYPSO_nCS3, 5, CALYPSO_MEM_16bit, 1);
  55              		.loc 1 90 0
  56 004c 0120A0E3 		mov	r2, #1
  57 0050 0230A0E1 		mov	r3, r2
  58 0054 0600A0E3 		mov	r0, #6
  59 0058 0510A0E3 		mov	r1, #5
  60 005c FEFFFFEB 		bl	calypso_mem_cfg
  91:board/compal_e99/init.c **** 	calypso_mem_cfg(CALYPSO_CS4, 0, CALYPSO_MEM_8bit, 1);
  61              		.loc 1 91 0
  62 0060 0010A0E3 		mov	r1, #0
  63 0064 0120A0E1 		mov	r2, r1
  64 0068 0A00A0E3 		mov	r0, #10
  65 006c 0130A0E3 		mov	r3, #1
  66 0070 FEFFFFEB 		bl	calypso_mem_cfg
  92:board/compal_e99/init.c **** 	calypso_mem_cfg(CALYPSO_nCS6, 0, CALYPSO_MEM_32bit, 1);
  67              		.loc 1 92 0
  68 0074 0C00A0E3 		mov	r0, #12
  69 0078 0010A0E3 		mov	r1, #0
  70 007c 0220A0E3 		mov	r2, #2
  71 0080 0130A0E3 		mov	r3, #1
  72 0084 FEFFFFEB 		bl	calypso_mem_cfg
  93:board/compal_e99/init.c **** 	calypso_mem_cfg(CALYPSO_nCS7, 0, CALYPSO_MEM_32bit, 0);
  73              		.loc 1 93 0
  74 0088 0010A0E3 		mov	r1, #0
  75 008c 0130A0E1 		mov	r3, r1
  76 0090 0800A0E3 		mov	r0, #8
  77 0094 0220A0E3 		mov	r2, #2
  78 0098 FEFFFFEB 		bl	calypso_mem_cfg
  94:board/compal_e99/init.c **** 
  95:board/compal_e99/init.c **** 	/* Set VTCXO_DIV2 = 1, configure PLL for 104 MHz and give ARM half of that */
  96:board/compal_e99/init.c **** 	calypso_clock_set(2, CALYPSO_PLL13_104_MHZ, ARM_MCLK_DIV_2);
  79              		.loc 1 96 0
  80 009c 0200A0E3 		mov	r0, #2
  81 00a0 0020A0E1 		mov	r2, r0
  82 00a4 021BA0E3 		mov	r1, #2048
  83 00a8 FEFFFFEB 		bl	calypso_clock_set
  97:board/compal_e99/init.c **** 
  98:board/compal_e99/init.c **** 	/* Configure the RHEA bridge with some sane default values */
  99:board/compal_e99/init.c **** 	calypso_rhea_cfg(0, 0, 0xff, 0, 1, 0, 0);
  84              		.loc 1 99 0
  85 00ac 0000A0E3 		mov	r0, #0
  86 00b0 0130A0E3 		mov	r3, #1
  87 00b4 0010A0E1 		mov	r1, r0
  88 00b8 00308DE5 		str	r3, [sp, #0]
  89 00bc FF20A0E3 		mov	r2, #255
  90 00c0 0030A0E1 		mov	r3, r0
  91 00c4 04008DE5 		str	r0, [sp, #4]
  92 00c8 08008DE5 		str	r0, [sp, #8]
  93 00cc FEFFFFEB 		bl	calypso_rhea_cfg
  94              	.LBB6:
  95              	.LBB7:
  60:board/compal_e99/init.c **** 	reg = readw(ASIC_CONF_REG);
  96              		.loc 1 60 0
  97 00d0 D8209FE5 		ldr	r2, .L3
  62:board/compal_e99/init.c **** 	reg &= ~( (1 << 12) | (1 << 10) | (1 << 7) | (1 << 1)) ;
  98              		.loc 1 62 0
  99 00d4 D8309FE5 		ldr	r3, .L3+4
  60:board/compal_e99/init.c **** 	reg = readw(ASIC_CONF_REG);
 100              		.loc 1 60 0
 101 00d8 B71F52E1 		ldrh	r1, [r2, #-247]
 102              	.LVL2:
  62:board/compal_e99/init.c **** 	reg &= ~( (1 << 12) | (1 << 10) | (1 << 7) | (1 << 1)) ;
 103              		.loc 1 62 0
 104 00dc 033001E0 		and	r3, r1, r3
 105              	.LVL3:
  65:board/compal_e99/init.c **** 	reg |= (1 << 13) | (1 << 14);
 106              		.loc 1 65 0
 107 00e0 063A83E3 		orr	r3, r3, #24576
 108              	.LVL4:
  66:board/compal_e99/init.c **** 	writew(reg, ASIC_CONF_REG);
 109              		.loc 1 66 0
 110 00e4 B73F42E1 		strh	r3, [r2, #-247]	@ movhi
  70:board/compal_e99/init.c **** 	reg = readw(IO_CNTL_REG);
 111              		.loc 1 70 0
 112 00e8 C8309FE5 		ldr	r3, .L3+8
 113              	.LVL5:
  71:board/compal_e99/init.c **** 	reg &= ~( (1 << 3) | (1 << 1));
 114              		.loc 1 71 0
 115 00ec C8209FE5 		ldr	r2, .L3+12
  70:board/compal_e99/init.c **** 	reg = readw(IO_CNTL_REG);
 116              		.loc 1 70 0
 117 00f0 BB1F53E1 		ldrh	r1, [r3, #-251]
 118              	.LVL6:
  71:board/compal_e99/init.c **** 	reg &= ~( (1 << 3) | (1 << 1));
 119              		.loc 1 71 0
 120 00f4 022001E0 		and	r2, r1, r2
 121              	.LVL7:
  72:board/compal_e99/init.c **** 	writew(reg, IO_CNTL_REG);
 122              		.loc 1 72 0
 123 00f8 BB2F43E1 		strh	r2, [r3, #-251]	@ movhi
  76:board/compal_e99/init.c **** 	reg &= ~(1 << 3);
 124              		.loc 1 76 0
 125 00fc BC209FE5 		ldr	r2, .L3+16
 126              	.LVL8:
  75:board/compal_e99/init.c **** 	reg = readw(ARMIO_LATCH_OUT);
 127              		.loc 1 75 0
 128 0100 BD1F53E1 		ldrh	r1, [r3, #-253]
 129              	.LVL9:
  76:board/compal_e99/init.c **** 	reg &= ~(1 << 3);
 130              		.loc 1 76 0
 131 0104 022001E0 		and	r2, r1, r2
 132              	.LVL10:
  77:board/compal_e99/init.c **** 	reg |= (1 << 1);
 133              		.loc 1 77 0
 134 0108 022082E3 		orr	r2, r2, #2
 135              	.LVL11:
  78:board/compal_e99/init.c **** 	writew(reg, ARMIO_LATCH_OUT);
 136              		.loc 1 78 0
 137 010c BD2F43E1 		strh	r2, [r3, #-253]	@ movhi
 138              	.LBE7:
 139              	.LBE6:
 100:board/compal_e99/init.c **** 
 101:board/compal_e99/init.c **** 	/* Initialize board-specific GPIO */
 102:board/compal_e99/init.c **** 	board_io_init();
 103:board/compal_e99/init.c **** 
 104:board/compal_e99/init.c **** 	/* Enable bootrom mapping to route exception vectors to RAM */
 105:board/compal_e99/init.c **** 	calypso_bootrom(with_irq);
 140              		.loc 1 105 0
 141 0110 0400A0E1 		mov	r0, r4
 142 0114 FEFFFFEB 		bl	calypso_bootrom
 143              	.LVL12:
 106:board/compal_e99/init.c **** 	calypso_exceptions_install();
 144              		.loc 1 106 0
 145 0118 FEFFFFEB 		bl	calypso_exceptions_install
 107:board/compal_e99/init.c **** 
 108:board/compal_e99/init.c **** 	/* Initialize interrupt controller */
 109:board/compal_e99/init.c **** 	if (with_irq)
 146              		.loc 1 109 0
 147 011c 000054E3 		cmp	r4, #0
 110:board/compal_e99/init.c **** 		irq_init();
 148              		.loc 1 110 0
 149 0120 FEFFFF1B 		blne	irq_init
 150              	.L2:
 111:board/compal_e99/init.c **** 
 112:board/compal_e99/init.c **** 	sercomm_bind_uart(UART_MODEM);
 151              		.loc 1 112 0
 152 0124 0100A0E3 		mov	r0, #1
 153 0128 FEFFFFEB 		bl	sercomm_bind_uart
 113:board/compal_e99/init.c **** 	cons_bind_uart(UART_IRDA);
 114:board/compal_e99/init.c **** 
 115:board/compal_e99/init.c **** 	/* initialize MODEM UART to be used for sercomm */
 116:board/compal_e99/init.c **** 	uart_init(UART_MODEM, with_irq);
 154              		.loc 1 116 0
 155 012c FF4004E2 		and	r4, r4, #255
 156              	.LVL13:
 113:board/compal_e99/init.c **** 	cons_bind_uart(UART_IRDA);
 157              		.loc 1 113 0
 158 0130 0000A0E3 		mov	r0, #0
 159 0134 FEFFFFEB 		bl	cons_bind_uart
 160              		.loc 1 116 0
 161 0138 0410A0E1 		mov	r1, r4
 162 013c 0100A0E3 		mov	r0, #1
 163 0140 FEFFFFEB 		bl	uart_init
 117:board/compal_e99/init.c **** 	uart_baudrate(UART_MODEM, UART_115200);
 164              		.loc 1 117 0
 165 0144 0210A0E3 		mov	r1, #2
 166 0148 0100A0E3 		mov	r0, #1
 167 014c FEFFFFEB 		bl	uart_baudrate
 118:board/compal_e99/init.c **** 
 119:board/compal_e99/init.c **** 	/* initialize IRDA UART to be used for old-school console code.
 120:board/compal_e99/init.c **** 	 * note: IRDA uart only accessible on C115 and C117 PCB */
 121:board/compal_e99/init.c **** 	uart_init(UART_IRDA, with_irq);
 168              		.loc 1 121 0
 169 0150 0410A0E1 		mov	r1, r4
 170 0154 0000A0E3 		mov	r0, #0
 171 0158 FEFFFFEB 		bl	uart_init
 122:board/compal_e99/init.c **** 	uart_baudrate(UART_IRDA, UART_115200);
 172              		.loc 1 122 0
 173 015c 0210A0E3 		mov	r1, #2
 174 0160 0000A0E3 		mov	r0, #0
 175 0164 FEFFFFEB 		bl	uart_baudrate
 123:board/compal_e99/init.c **** 
 124:board/compal_e99/init.c **** 	/* Initialize hardware timers */
 125:board/compal_e99/init.c **** 	hwtimer_init();
 176              		.loc 1 125 0
 177 0168 FEFFFFEB 		bl	hwtimer_init
 126:board/compal_e99/init.c **** 
 127:board/compal_e99/init.c **** 	/* Initialize DMA controller */
 128:board/compal_e99/init.c **** 	dma_init();
 178              		.loc 1 128 0
 179 016c FEFFFFEB 		bl	dma_init
 129:board/compal_e99/init.c **** 
 130:board/compal_e99/init.c **** 	/* Initialize real time clock */
 131:board/compal_e99/init.c **** 	rtc_init();
 180              		.loc 1 131 0
 181 0170 FEFFFFEB 		bl	rtc_init
 132:board/compal_e99/init.c **** 
 133:board/compal_e99/init.c **** 	/* Initialize system timers (uses hwtimer 2) */
 134:board/compal_e99/init.c **** 	timer_init();
 182              		.loc 1 134 0
 183 0174 FEFFFFEB 		bl	timer_init
 135:board/compal_e99/init.c **** 
 136:board/compal_e99/init.c **** 	/* Initialize LCD driver (uses UWire) and backlight */
 137:board/compal_e99/init.c **** 	bl_mode_pwl(1);
 184              		.loc 1 137 0
 185 0178 0100A0E3 		mov	r0, #1
 186 017c FEFFFFEB 		bl	bl_mode_pwl
 138:board/compal_e99/init.c **** 	bl_level(50);
 187              		.loc 1 138 0
 188 0180 3200A0E3 		mov	r0, #50
 189 0184 FEFFFFEB 		bl	bl_level
 190              	.LBB8:
 191              	.LBB9:
 192              		.file 2 "include/fb/framebuffer.h"
   1:include/fb/framebuffer.h **** #ifndef _FB_FRAMEBUFFER_H
   2:include/fb/framebuffer.h **** #define _FB_FRAMEBUFFER_H
   3:include/fb/framebuffer.h **** 
   4:include/fb/framebuffer.h **** #include <fb/font.h>
   5:include/fb/framebuffer.h **** #include <stdint.h>
   6:include/fb/framebuffer.h **** 
   7:include/fb/framebuffer.h **** /* color is encoded as <special><red><green><blue> */
   8:include/fb/framebuffer.h **** /* if a color is "special", then the RGB components most likely
   9:include/fb/framebuffer.h ****    don't make sense. Use "special" colours when you have to
  10:include/fb/framebuffer.h ****    mask out bits with transparency or you have to encode
  11:include/fb/framebuffer.h ****    colours in a fixed color palette... */
  12:include/fb/framebuffer.h **** 
  13:include/fb/framebuffer.h **** #define FB_COLOR_WHITE		0x00ffffffU
  14:include/fb/framebuffer.h **** #define FB_COLOR_BLACK		0x00000000U
  15:include/fb/framebuffer.h **** #define FB_COLOR_TRANSP		0x01ffffffU
  16:include/fb/framebuffer.h **** 
  17:include/fb/framebuffer.h **** #define FB_COLOR_RGB(r,g,b) ((((r) & 0xff)<<16)|(((g)&0xff)<<8)|((b)&0xff))
  18:include/fb/framebuffer.h **** #define FB_COLOR_RED		FB_COLOR_RGB(0xff,0x00,0x00)
  19:include/fb/framebuffer.h **** #define FB_COLOR_GREEN		FB_COLOR_RGB(0x00,0xff,0x00)
  20:include/fb/framebuffer.h **** #define FB_COLOR_BLUE		FB_COLOR_RGB(0x00,0x00,0xff)
  21:include/fb/framebuffer.h **** 
  22:include/fb/framebuffer.h **** /* encode */
  23:include/fb/framebuffer.h **** 
  24:include/fb/framebuffer.h **** /* decode */
  25:include/fb/framebuffer.h **** #define FB_COLOR_IS_SPECIAL(v)     (!!((v) & 0xff000000U))
  26:include/fb/framebuffer.h **** #define FB_COLOR_TO_R(v)		(((v)>>16) & 0xff)
  27:include/fb/framebuffer.h **** #define FB_COLOR_TO_G(v)		(((v)>> 8) & 0xff)
  28:include/fb/framebuffer.h **** #define FB_COLOR_TO_B(v)		( (v)      & 0xff)
  29:include/fb/framebuffer.h **** 
  30:include/fb/framebuffer.h **** struct framebuffer {
  31:include/fb/framebuffer.h **** 	char name[8];				// keep it short!
  32:include/fb/framebuffer.h **** 	void (*init)();				// (re)initialize
  33:include/fb/framebuffer.h **** 	void (*clear)();			// clear display
  34:include/fb/framebuffer.h **** 	void (*boxto)(uint16_t x,uint16_t y);	// draw box to xy
  35:include/fb/framebuffer.h **** 	void (*lineto)(uint16_t x,uint16_t y);	// draw line to xy
  36:include/fb/framebuffer.h **** 	int (*putstr)(char *c,int maxwidth);	// put text in current font to fb
  37:include/fb/framebuffer.h **** 	void (*flush)();			// flush changes
  38:include/fb/framebuffer.h **** 
  39:include/fb/framebuffer.h **** 	uint16_t width,height;			// width/height of fb
  40:include/fb/framebuffer.h **** 	uint16_t cursor_x,cursor_y;		// current cursor
  41:include/fb/framebuffer.h **** 	uint32_t fg_color,bg_color;		// current fg/bg color
  42:include/fb/framebuffer.h **** 	enum fb_font_id font;			// current font
  43:include/fb/framebuffer.h **** };
  44:include/fb/framebuffer.h **** 
  45:include/fb/framebuffer.h **** /* there is a single framebuffer, the specific driver defines
  46:include/fb/framebuffer.h ****    the "framebuffer" symbol */
  47:include/fb/framebuffer.h **** extern struct framebuffer *framebuffer;
  48:include/fb/framebuffer.h **** 
  49:include/fb/framebuffer.h **** static inline void
  50:include/fb/framebuffer.h **** fb_init(){
  51:include/fb/framebuffer.h **** 	framebuffer->init();
 193              		.loc 2 51 0
 194 0188 34309FE5 		ldr	r3, .L3+20
 195 018c 003093E5 		ldr	r3, [r3, #0]
 196 0190 0FE0A0E1 		mov	lr, pc
 197 0194 08F093E5 		ldr	pc, [r3, #8]
 198              	.LBE9:
 199              	.LBE8:
 139:board/compal_e99/init.c **** 
 140:board/compal_e99/init.c **** 	fb_init();
 141:board/compal_e99/init.c **** 
 142:board/compal_e99/init.c **** 	/* Initialize keypad driver */
 143:board/compal_e99/init.c **** 	keypad_init(keymap, with_irq);
 200              		.loc 1 143 0
 201 0198 28009FE5 		ldr	r0, .L3+24
 202 019c 0410A0E1 		mov	r1, r4
 203 01a0 FEFFFFEB 		bl	keypad_init
 144:board/compal_e99/init.c **** 
 145:board/compal_e99/init.c **** 	/* Initialize ABB driver (uses SPI) */
 146:board/compal_e99/init.c **** 	twl3025_init();
 147:board/compal_e99/init.c **** }
 204              		.loc 1 147 0
 205 01a4 0CD08DE2 		add	sp, sp, #12
 206 01a8 1040BDE8 		ldmfd	sp!, {r4, lr}
 146:board/compal_e99/init.c **** 	twl3025_init();
 207              		.loc 1 146 0
 208 01ac FEFFFFEA 		b	twl3025_init
 209              	.L4:
 210              		.align	2
 211              	.L3:
 212 01b0 FFF0FEFF 		.word	-69377
 213 01b4 7DEB0000 		.word	60285
 214 01b8 FF48FEFF 		.word	-112385
 215 01bc F5FF0000 		.word	65525
 216 01c0 F7FF0000 		.word	65527
 217 01c4 00000000 		.word	framebuffer
 218 01c8 00000000 		.word	.LANCHOR0
 219              		.cfi_endproc
 220              	.LFE53:
 222              		.section	.rodata
 223              		.align	2
 224              		.set	.LANCHOR0,. + 0
 227              	keymap:
 228 0000 0D       		.byte	13
 229 0001 0F       		.byte	15
 230 0002 0A       		.byte	10
 231 0003 05       		.byte	5
 232 0004 10       		.byte	16
 233 0005 0B       		.byte	11
 234 0006 06       		.byte	6
 235 0007 11       		.byte	17
 236 0008 0C       		.byte	12
 237 0009 07       		.byte	7
 238 000a 12       		.byte	18
 239 000b 08       		.byte	8
 240 000c 0E       		.byte	14
 241 000d 13       		.byte	19
 242 000e 09       		.byte	9
 243 000f 01       		.byte	1
 244 0010 02       		.byte	2
 245 0011 03       		.byte	3
 246 0012 04       		.byte	4
 247 0013 00       		.byte	0
 248 0014 18       		.byte	24
 249 0015 1E       		.byte	30
 250 0016 1F       		.byte	31
 251 0017 00       		.text
 252              	.Letext0: