   1              		.file	"main.c"
   9              	.Ltext0:
  10              		.cfi_sections	.debug_frame
  11              		.section	.text.main,"ax",%progbits
  12              		.align	2
  13              		.global	main
  15              	main:
  16              	.LFB37:
  17              		.file 1 "apps/compal_dsp_dump/main.c"
   1:apps/compal_dsp_dump/main.c **** /* main program of Free Software for Calypso Phone */
   2:apps/compal_dsp_dump/main.c **** 
   3:apps/compal_dsp_dump/main.c **** /* (C) 2010 Harald Welte <laforge@gnumonks.org>
   4:apps/compal_dsp_dump/main.c ****  * (C) 2010 Sylvain Munaut <tnt@246tNt.com>
   5:apps/compal_dsp_dump/main.c ****  *
   6:apps/compal_dsp_dump/main.c ****  * All Rights Reserved
   7:apps/compal_dsp_dump/main.c ****  *
   8:apps/compal_dsp_dump/main.c ****  * This program is free software; you can redistribute it and/or modify
   9:apps/compal_dsp_dump/main.c ****  * it under the terms of the GNU General Public License as published by
  10:apps/compal_dsp_dump/main.c ****  * the Free Software Foundation; either version 2 of the License, or
  11:apps/compal_dsp_dump/main.c ****  * (at your option) any later version.
  12:apps/compal_dsp_dump/main.c ****  *
  13:apps/compal_dsp_dump/main.c ****  * This program is distributed in the hope that it will be useful,
  14:apps/compal_dsp_dump/main.c ****  * but WITHOUT ANY WARRANTY; without even the implied warranty of
  15:apps/compal_dsp_dump/main.c ****  * MERCHANTABILITY or FITNESS FOR A PARTICULAR PURPOSE.  See the
  16:apps/compal_dsp_dump/main.c ****  * GNU General Public License for more details.
  17:apps/compal_dsp_dump/main.c ****  *
  18:apps/compal_dsp_dump/main.c ****  * You should have received a copy of the GNU General Public License along
  19:apps/compal_dsp_dump/main.c ****  * with this program; if not, write to the Free Software Foundation, Inc.,
  20:apps/compal_dsp_dump/main.c ****  * 51 Franklin Street, Fifth Floor, Boston, MA 02110-1301 USA.
  21:apps/compal_dsp_dump/main.c ****  *
  22:apps/compal_dsp_dump/main.c ****  */
  23:apps/compal_dsp_dump/main.c **** 
  24:apps/compal_dsp_dump/main.c **** #include <memory.h>
  25:apps/compal_dsp_dump/main.c **** #include <delay.h>
  26:apps/compal_dsp_dump/main.c **** #include <stdio.h>
  27:apps/compal_dsp_dump/main.c **** #include <stdint.h>
  28:apps/compal_dsp_dump/main.c **** #include <rffe.h>
  29:apps/compal_dsp_dump/main.c **** #include <keypad.h>
  30:apps/compal_dsp_dump/main.c **** #include <board.h>
  31:apps/compal_dsp_dump/main.c **** #include <abb/twl3025.h>
  32:apps/compal_dsp_dump/main.c **** #include <rf/trf6151.h>
  33:apps/compal_dsp_dump/main.c **** #include <calypso/clock.h>
  34:apps/compal_dsp_dump/main.c **** #include <calypso/tpu.h>
  35:apps/compal_dsp_dump/main.c **** #include <calypso/tsp.h>
  36:apps/compal_dsp_dump/main.c **** #include <calypso/dsp.h>
  37:apps/compal_dsp_dump/main.c **** #include <calypso/irq.h>
  38:apps/compal_dsp_dump/main.c **** #include <calypso/misc.h>
  39:apps/compal_dsp_dump/main.c **** #include <comm/timer.h>
  40:apps/compal_dsp_dump/main.c **** #include <fb/framebuffer.h>
  41:apps/compal_dsp_dump/main.c **** 
  42:apps/compal_dsp_dump/main.c **** /* Main Program */
  43:apps/compal_dsp_dump/main.c **** const char *hr = "======================================================================\n";
  44:apps/compal_dsp_dump/main.c **** 
  45:apps/compal_dsp_dump/main.c **** int main(void)
  46:apps/compal_dsp_dump/main.c **** {
  18              		.loc 1 46 0
  19              		.cfi_startproc
  20              		@ args = 0, pretend = 0, frame = 0
  21              		@ frame_needed = 0, uses_anonymous_args = 0
  22 0000 70402DE9 		stmfd	sp!, {r4, r5, r6, lr}
  23              	.LCFI0:
  24              		.cfi_def_cfa_offset 16
  47:apps/compal_dsp_dump/main.c **** 	board_init(1);
  25              		.loc 1 47 0
  26 0004 0100A0E3 		mov	r0, #1
  48:apps/compal_dsp_dump/main.c **** 
  49:apps/compal_dsp_dump/main.c **** 	puts("\n\nOsmocomBB Compal DSP Dumper (revision " GIT_REVISION ")\n");
  50:apps/compal_dsp_dump/main.c **** 	puts(hr);
  27              		.loc 1 50 0
  28 0008 F4409FE5 		ldr	r4, .L3
  29              		.cfi_offset 14, -4
  30              		.cfi_offset 6, -8
  31              		.cfi_offset 5, -12
  32              		.cfi_offset 4, -16
  47:apps/compal_dsp_dump/main.c **** 	board_init(1);
  33              		.loc 1 47 0
  34 000c FEFFFFEB 		bl	board_init
  49:apps/compal_dsp_dump/main.c **** 	puts("\n\nOsmocomBB Compal DSP Dumper (revision " GIT_REVISION ")\n");
  35              		.loc 1 49 0
  36 0010 F0009FE5 		ldr	r0, .L3+4
  37 0014 FEFFFFEB 		bl	puts
  38              		.loc 1 50 0
  39 0018 000094E5 		ldr	r0, [r4, #0]
  40 001c FEFFFFEB 		bl	puts
  51:apps/compal_dsp_dump/main.c **** 
  52:apps/compal_dsp_dump/main.c **** 	/* Dump device identification */
  53:apps/compal_dsp_dump/main.c **** 	dump_dev_id();
  41              		.loc 1 53 0
  42 0020 FEFFFFEB 		bl	dump_dev_id
  54:apps/compal_dsp_dump/main.c **** 	puts(hr);
  43              		.loc 1 54 0
  44 0024 000094E5 		ldr	r0, [r4, #0]
  45              	.LBB32:
  46              	.LBB33:
  47              		.file 2 "include/fb/framebuffer.h"
   1:include/fb/framebuffer.h **** #ifndef _FB_FRAMEBUFFER_H
   2:include/fb/framebuffer.h **** #define _FB_FRAMEBUFFER_H
   3:include/fb/framebuffer.h **** 
   4:include/fb/framebuffer.h **** #include <fb/font.h>
   5:include/fb/framebuffer.h **** #include <stdint.h>
   6:include/fb/framebuffer.h **** 
   7:include/fb/framebuffer.h **** /* color is encoded as <special><red><green><blue> */
   8:include/fb/framebuffer.h **** /* if a color is "special", then the RGB components most likely
   9:include/fb/framebuffer.h ****    don't make sense. Use "special" colours when you have to
  10:include/fb/framebuffer.h ****    mask out bits with transparency or you have to encode
  11:include/fb/framebuffer.h ****    colours in a fixed color palette... */
  12:include/fb/framebuffer.h **** 
  13:include/fb/framebuffer.h **** #define FB_COLOR_WHITE		0x00ffffffU
  14:include/fb/framebuffer.h **** #define FB_COLOR_BLACK		0x00000000U
  15:include/fb/framebuffer.h **** #define FB_COLOR_TRANSP		0x01ffffffU
  16:include/fb/framebuffer.h **** 
  17:include/fb/framebuffer.h **** #define FB_COLOR_RGB(r,g,b) ((((r) & 0xff)<<16)|(((g)&0xff)<<8)|((b)&0xff))
  18:include/fb/framebuffer.h **** #define FB_COLOR_RED		FB_COLOR_RGB(0xff,0x00,0x00)
  19:include/fb/framebuffer.h **** #define FB_COLOR_GREEN		FB_COLOR_RGB(0x00,0xff,0x00)
  20:include/fb/framebuffer.h **** #define FB_COLOR_BLUE		FB_COLOR_RGB(0x00,0x00,0xff)
  21:include/fb/framebuffer.h **** 
  22:include/fb/framebuffer.h **** /* encode */
  23:include/fb/framebuffer.h **** 
  24:include/fb/framebuffer.h **** /* decode */
  25:include/fb/framebuffer.h **** #define FB_COLOR_IS_SPECIAL(v)     (!!((v) & 0xff000000U))
  26:include/fb/framebuffer.h **** #define FB_COLOR_TO_R(v)		(((v)>>16) & 0xff)
  27:include/fb/framebuffer.h **** #define FB_COLOR_TO_G(v)		(((v)>> 8) & 0xff)
  28:include/fb/framebuffer.h **** #define FB_COLOR_TO_B(v)		( (v)      & 0xff)
  29:include/fb/framebuffer.h **** 
  30:include/fb/framebuffer.h **** struct framebuffer {
  31:include/fb/framebuffer.h **** 	char name[8];				// keep it short!
  32:include/fb/framebuffer.h **** 	void (*init)();				// (re)initialize
  33:include/fb/framebuffer.h **** 	void (*clear)();			// clear display
  34:include/fb/framebuffer.h **** 	void (*boxto)(uint16_t x,uint16_t y);	// draw box to xy
  35:include/fb/framebuffer.h **** 	void (*lineto)(uint16_t x,uint16_t y);	// draw line to xy
  36:include/fb/framebuffer.h **** 	int (*putstr)(char *c,int maxwidth);	// put text in current font to fb
  37:include/fb/framebuffer.h **** 	void (*flush)();			// flush changes
  38:include/fb/framebuffer.h **** 
  39:include/fb/framebuffer.h **** 	uint16_t width,height;			// width/height of fb
  40:include/fb/framebuffer.h **** 	uint16_t cursor_x,cursor_y;		// current cursor
  41:include/fb/framebuffer.h **** 	uint32_t fg_color,bg_color;		// current fg/bg color
  42:include/fb/framebuffer.h **** 	enum fb_font_id font;			// current font
  43:include/fb/framebuffer.h **** };
  44:include/fb/framebuffer.h **** 
  45:include/fb/framebuffer.h **** /* there is a single framebuffer, the specific driver defines
  46:include/fb/framebuffer.h ****    the "framebuffer" symbol */
  47:include/fb/framebuffer.h **** extern struct framebuffer *framebuffer;
  48:include/fb/framebuffer.h **** 
  49:include/fb/framebuffer.h **** static inline void
  50:include/fb/framebuffer.h **** fb_init(){
  51:include/fb/framebuffer.h **** 	framebuffer->init();
  52:include/fb/framebuffer.h **** }
  53:include/fb/framebuffer.h **** 
  54:include/fb/framebuffer.h **** static inline void
  55:include/fb/framebuffer.h **** fb_clear(){
  56:include/fb/framebuffer.h **** 	framebuffer->clear();
  48              		.loc 2 56 0
  49 0028 DC409FE5 		ldr	r4, .L3+8
  50              	.LBE33:
  51              	.LBE32:
  52              		.loc 1 54 0
  53 002c FEFFFFEB 		bl	puts
  54              	.LBB35:
  55              	.LBB34:
  56              		.loc 2 56 0
  57 0030 003094E5 		ldr	r3, [r4, #0]
  58 0034 0FE0A0E1 		mov	lr, pc
  59 0038 0CF093E5 		ldr	pc, [r3, #12]
  60              	.LVL0:
  61              	.LBE34:
  62              	.LBE35:
  63              	.LBB36:
  64              	.LBB38:
  57:include/fb/framebuffer.h **** }
  58:include/fb/framebuffer.h **** 
  59:include/fb/framebuffer.h **** static inline void
  60:include/fb/framebuffer.h **** fb_boxto(uint16_t x,uint16_t y){
  61:include/fb/framebuffer.h **** 	framebuffer->boxto(x,y);
  62:include/fb/framebuffer.h **** }
  63:include/fb/framebuffer.h **** 
  64:include/fb/framebuffer.h **** static inline void
  65:include/fb/framebuffer.h **** fb_lineto(uint16_t x,uint16_t y){
  66:include/fb/framebuffer.h **** 	framebuffer->lineto(x,y);
  67:include/fb/framebuffer.h **** }
  68:include/fb/framebuffer.h **** 
  69:include/fb/framebuffer.h **** static inline int
  70:include/fb/framebuffer.h **** fb_putstr(char *str,int maxwidth){
  71:include/fb/framebuffer.h **** 	return framebuffer->putstr(str,maxwidth);
  72:include/fb/framebuffer.h **** }
  73:include/fb/framebuffer.h **** 
  74:include/fb/framebuffer.h **** static inline void
  75:include/fb/framebuffer.h **** fb_flush(){
  76:include/fb/framebuffer.h **** 	framebuffer->flush();
  77:include/fb/framebuffer.h **** }
  78:include/fb/framebuffer.h **** 
  79:include/fb/framebuffer.h **** static inline void
  80:include/fb/framebuffer.h **** fb_gotoxy(uint16_t x,uint16_t y){
  81:include/fb/framebuffer.h **** 	framebuffer->cursor_x = x;
  82:include/fb/framebuffer.h **** 	framebuffer->cursor_y = y;
  83:include/fb/framebuffer.h **** }
  84:include/fb/framebuffer.h **** 
  85:include/fb/framebuffer.h **** static inline void
  86:include/fb/framebuffer.h **** fb_setfg(uint32_t color){
  87:include/fb/framebuffer.h **** 	framebuffer->fg_color = color;
  65              		.loc 2 87 0
  66 003c 003094E5 		ldr	r3, [r4, #0]
  67              	.LBE38:
  68              	.LBE36:
  69              	.LBB40:
  70              	.LBB41:
  88:include/fb/framebuffer.h **** }
  89:include/fb/framebuffer.h **** 
  90:include/fb/framebuffer.h **** static inline void
  91:include/fb/framebuffer.h **** fb_setbg(uint32_t color){
  92:include/fb/framebuffer.h **** 	framebuffer->bg_color = color;
  93:include/fb/framebuffer.h **** }
  94:include/fb/framebuffer.h **** 
  95:include/fb/framebuffer.h **** static inline void
  96:include/fb/framebuffer.h **** fb_setfont(enum fb_font_id fid){
  97:include/fb/framebuffer.h **** 	framebuffer->font = fid;
  71              		.loc 2 97 0
  72 0040 0120A0E3 		mov	r2, #1
  73 0044 302083E5 		str	r2, [r3, #48]
  74              	.LBE41:
  75              	.LBE40:
  55:apps/compal_dsp_dump/main.c **** 
  56:apps/compal_dsp_dump/main.c **** 	fb_clear();
  57:apps/compal_dsp_dump/main.c **** 
  58:apps/compal_dsp_dump/main.c **** 	fb_setfg(FB_COLOR_BLACK);
  59:apps/compal_dsp_dump/main.c **** 	fb_setbg(FB_COLOR_WHITE);
  60:apps/compal_dsp_dump/main.c **** 	fb_setfont(FB_FONT_HELVB14);
  61:apps/compal_dsp_dump/main.c **** 
  62:apps/compal_dsp_dump/main.c **** 	fb_gotoxy(2,20);
  63:apps/compal_dsp_dump/main.c **** 	fb_putstr("DSP Dump",framebuffer->width-4);
  76              		.loc 1 63 0
  77 0048 B012D3E1 		ldrh	r1, [r3, #32]
  78              	.LBB42:
  79              	.LBB44:
  81:include/fb/framebuffer.h **** 	framebuffer->cursor_x = x;
  80              		.loc 2 81 0
  81 004c 0220A0E3 		mov	r2, #2	@ movhi
  82 0050 B422C3E1 		strh	r2, [r3, #36]	@ movhi
  83              	.LBE44:
  84              	.LBE42:
  85              	.LBB46:
  86              	.LBB37:
  87:include/fb/framebuffer.h **** 	framebuffer->fg_color = color;
  87              		.loc 2 87 0
  88 0054 0050A0E3 		mov	r5, #0
  89              	.LBE37:
  90              	.LBE46:
  91              	.LBB47:
  92              	.LBB43:
  82:include/fb/framebuffer.h **** 	framebuffer->cursor_y = y;
  93              		.loc 2 82 0
  94 0058 1420A0E3 		mov	r2, #20	@ movhi
  95              	.LBE43:
  96              	.LBE47:
  97              	.LBB48:
  98              	.LBB49:
  92:include/fb/framebuffer.h **** 	framebuffer->bg_color = color;
  99              		.loc 2 92 0
 100 005c FF64E0E3 		mvn	r6, #-16777216
 101              	.LBE49:
 102              	.LBE48:
 103              	.LBB51:
 104              	.LBB45:
  82:include/fb/framebuffer.h **** 	framebuffer->cursor_y = y;
 105              		.loc 2 82 0
 106 0060 B622C3E1 		strh	r2, [r3, #38]	@ movhi
 107              	.LBE45:
 108              	.LBE51:
 109              	.LBB52:
 110              	.LBB39:
  87:include/fb/framebuffer.h **** 	framebuffer->fg_color = color;
 111              		.loc 2 87 0
 112 0064 285083E5 		str	r5, [r3, #40]
 113              	.LVL1:
 114              	.LBE39:
 115              	.LBE52:
 116              	.LBB53:
 117              	.LBB50:
  92:include/fb/framebuffer.h **** 	framebuffer->bg_color = color;
 118              		.loc 2 92 0
 119 0068 2C6083E5 		str	r6, [r3, #44]
 120              	.LVL2:
 121              	.LBE50:
 122              	.LBE53:
 123              	.LBB54:
 124              	.LBB55:
  71:include/fb/framebuffer.h **** 	return framebuffer->putstr(str,maxwidth);
 125              		.loc 2 71 0
 126 006c 041041E2 		sub	r1, r1, #4
 127 0070 98009FE5 		ldr	r0, .L3+12
 128 0074 0FE0A0E1 		mov	lr, pc
 129 0078 18F093E5 		ldr	pc, [r3, #24]
 130              	.LVL3:
 131              	.LBE55:
 132              	.LBE54:
 133              	.LBB56:
 134              	.LBB57:
  87:include/fb/framebuffer.h **** 	framebuffer->fg_color = color;
 135              		.loc 2 87 0
 136 007c 003094E5 		ldr	r3, [r4, #0]
 137 0080 FF28A0E3 		mov	r2, #16711680
 138              	.LBE57:
 139              	.LBE56:
  64:apps/compal_dsp_dump/main.c **** 
  65:apps/compal_dsp_dump/main.c **** 	fb_setfg(FB_COLOR_RED);
  66:apps/compal_dsp_dump/main.c **** 	fb_setbg(FB_COLOR_BLUE);
  67:apps/compal_dsp_dump/main.c **** 
  68:apps/compal_dsp_dump/main.c **** 	fb_gotoxy(2,25);
  69:apps/compal_dsp_dump/main.c **** 	fb_boxto(framebuffer->width-3,38);
 140              		.loc 1 69 0
 141 0084 B002D3E1 		ldrh	r0, [r3, #32]
 142              	.LBB59:
 143              	.LBB58:
  87:include/fb/framebuffer.h **** 	framebuffer->fg_color = color;
 144              		.loc 2 87 0
 145 0088 282083E5 		str	r2, [r3, #40]
 146              	.LVL4:
 147              	.LBE58:
 148              	.LBE59:
 149              	.LBB60:
 150              	.LBB61:
  92:include/fb/framebuffer.h **** 	framebuffer->bg_color = color;
 151              		.loc 2 92 0
 152 008c FF20A0E3 		mov	r2, #255
 153 0090 2C2083E5 		str	r2, [r3, #44]
 154              	.LVL5:
 155              	.LBE61:
 156              	.LBE60:
 157              		.loc 1 69 0
 158 0094 030040E2 		sub	r0, r0, #3
 159              	.LBB62:
 160              	.LBB63:
  81:include/fb/framebuffer.h **** 	framebuffer->cursor_x = x;
 161              		.loc 2 81 0
 162 0098 0220A0E3 		mov	r2, #2	@ movhi
 163 009c B422C3E1 		strh	r2, [r3, #36]	@ movhi
 164              	.LBE63:
 165              	.LBE62:
 166              		.loc 1 69 0
 167 00a0 0008A0E1 		mov	r0, r0, asl #16
 168              	.LBB65:
 169              	.LBB64:
  82:include/fb/framebuffer.h **** 	framebuffer->cursor_y = y;
 170              		.loc 2 82 0
 171 00a4 1920A0E3 		mov	r2, #25	@ movhi
 172 00a8 B622C3E1 		strh	r2, [r3, #38]	@ movhi
 173              	.LVL6:
 174              	.LBE64:
 175              	.LBE65:
 176              	.LBB66:
 177              	.LBB67:
  61:include/fb/framebuffer.h **** 	framebuffer->boxto(x,y);
 178              		.loc 2 61 0
 179 00ac 2008A0E1 		mov	r0, r0, lsr #16
 180 00b0 2610A0E3 		mov	r1, #38
 181 00b4 0FE0A0E1 		mov	lr, pc
 182 00b8 10F093E5 		ldr	pc, [r3, #16]
 183              	.LVL7:
 184              	.LBE67:
 185              	.LBE66:
 186              	.LBB68:
 187              	.LBB69:
  87:include/fb/framebuffer.h **** 	framebuffer->fg_color = color;
 188              		.loc 2 87 0
 189 00bc 003094E5 		ldr	r3, [r4, #0]
 190              	.LBE69:
 191              	.LBE68:
 192              	.LBB71:
 193              	.LBB72:
  81:include/fb/framebuffer.h **** 	framebuffer->cursor_x = x;
 194              		.loc 2 81 0
 195 00c0 0820A0E3 		mov	r2, #8	@ movhi
 196              	.LBE72:
 197              	.LBE71:
  70:apps/compal_dsp_dump/main.c **** 
  71:apps/compal_dsp_dump/main.c **** 	fb_setfg(FB_COLOR_WHITE);
  72:apps/compal_dsp_dump/main.c **** 	fb_setfont(FB_FONT_HELVR08);
  73:apps/compal_dsp_dump/main.c **** 	fb_gotoxy(8,33);
  74:apps/compal_dsp_dump/main.c **** 	fb_putstr("osmocom-bb",framebuffer->width-4);
 198              		.loc 1 74 0
 199 00c4 B012D3E1 		ldrh	r1, [r3, #32]
 200              	.LBB74:
 201              	.LBB73:
  81:include/fb/framebuffer.h **** 	framebuffer->cursor_x = x;
 202              		.loc 2 81 0
 203 00c8 B422C3E1 		strh	r2, [r3, #36]	@ movhi
  82:include/fb/framebuffer.h **** 	framebuffer->cursor_y = y;
 204              		.loc 2 82 0
 205 00cc 2120A0E3 		mov	r2, #33	@ movhi
 206 00d0 B622C3E1 		strh	r2, [r3, #38]	@ movhi
 207              	.LBE73:
 208              	.LBE74:
 209              	.LBB75:
 210              	.LBB70:
  87:include/fb/framebuffer.h **** 	framebuffer->fg_color = color;
 211              		.loc 2 87 0
 212 00d4 286083E5 		str	r6, [r3, #40]
 213              	.LVL8:
 214              	.LBE70:
 215              	.LBE75:
 216              	.LBB76:
 217              	.LBB77:
 218              		.loc 2 97 0
 219 00d8 305083E5 		str	r5, [r3, #48]
 220              	.LVL9:
 221              	.LBE77:
 222              	.LBE76:
 223              	.LBB78:
 224              	.LBB79:
  71:include/fb/framebuffer.h **** 	return framebuffer->putstr(str,maxwidth);
 225              		.loc 2 71 0
 226 00dc 041041E2 		sub	r1, r1, #4
 227 00e0 2C009FE5 		ldr	r0, .L3+16
 228 00e4 0FE0A0E1 		mov	lr, pc
 229 00e8 18F093E5 		ldr	pc, [r3, #24]
 230              	.LBE79:
 231              	.LBE78:
 232              	.LBB80:
 233              	.LBB81:
  76:include/fb/framebuffer.h **** 	framebuffer->flush();
 234              		.loc 2 76 0
 235 00ec 003094E5 		ldr	r3, [r4, #0]
 236 00f0 0FE0A0E1 		mov	lr, pc
 237 00f4 1CF093E5 		ldr	pc, [r3, #28]
 238              	.LBE81:
 239              	.LBE80:
  75:apps/compal_dsp_dump/main.c **** 
  76:apps/compal_dsp_dump/main.c **** 	fb_flush();
  77:apps/compal_dsp_dump/main.c **** 
  78:apps/compal_dsp_dump/main.c **** 	/* Dump DSP content */
  79:apps/compal_dsp_dump/main.c **** 	dsp_dump();
 240              		.loc 1 79 0
 241 00f8 FEFFFFEB 		bl	dsp_dump
 242              	.L2:
  80:apps/compal_dsp_dump/main.c **** 
  81:apps/compal_dsp_dump/main.c **** 	while (1) {
  82:apps/compal_dsp_dump/main.c **** 		osmo_timers_update();
 243              		.loc 1 82 0 discriminator 1
 244 00fc FEFFFFEB 		bl	osmo_timers_update
 245 0100 FDFFFFEA 		b	.L2
 246              	.L4:
 247              		.align	2
 248              	.L3:
 249 0104 00000000 		.word	.LANCHOR0
 250 0108 00000000 		.word	.LC0
 251 010c 00000000 		.word	framebuffer
 252 0110 51000000 		.word	.LC1
 253 0114 5A000000 		.word	.LC2
 254              		.cfi_endproc
 255              	.LFE37:
 257              		.global	hr
 258              		.section	.rodata.str1.1,"aMS",%progbits,1
 259              	.LC0:
 260 0000 0A0A4F73 		.ascii	"\012\012OsmocomBB Compal DSP Dumper (revision osmoc"
 260      6D6F636F 
 260      6D424220 
 260      436F6D70 
 260      616C2044 
 261 002d 6F6E5F76 		.ascii	"on_v0.0.0-1841-g903e2515-modified)\012\000"
 261      302E302E 
 261      302D3138 
 261      34312D67 
 261      39303365 
 262              	.LC1:
 263 0051 44535020 		.ascii	"DSP Dump\000"
 263      44756D70 
 263      00
 264              	.LC2:
 265 005a 6F736D6F 		.ascii	"osmocom-bb\000"
 265      636F6D2D 
 265      626200
 266              	.LC3:
 267 0065 3D3D3D3D 		.ascii	"==================================================="
 267      3D3D3D3D 
 267      3D3D3D3D 
 267      3D3D3D3D 
 267      3D3D3D3D 
 268 0098 3D3D3D3D 		.ascii	"===================\012\000"
 268      3D3D3D3D 
 268      3D3D3D3D 
 268      3D3D3D3D 
 268      3D3D3D0A 
 269              		.data
 270              		.align	2
 271              		.set	.LANCHOR0,. + 0
 274              	hr:
 275 0000 65000000 		.word	.LC3
 276              		.text
 277              	.Letext0: