   1              		.file	"fb_dummy.c"
   9              	.Ltext0:
  10              		.cfi_sections	.debug_frame
  11              		.section	.text.fb_dummy_init,"ax",%progbits
  12              		.align	2
  14              	fb_dummy_init:
  15              	.LFB12:
  16              		.file 1 "fb/fb_dummy.c"
   1:fb/fb_dummy.c **** /*
   2:fb/fb_dummy.c ****     "hardware" driver for a dummy framebuffer. Used when no
   3:fb/fb_dummy.c ****     display hardware is supported
   4:fb/fb_dummy.c ****  */
   5:fb/fb_dummy.c **** 
   6:fb/fb_dummy.c **** /* (C) 2010 by Christian Vogel <vogelchr@vogel.cx>
   7:fb/fb_dummy.c ****  *
   8:fb/fb_dummy.c ****  * All Rights Reserved
   9:fb/fb_dummy.c ****  *
  10:fb/fb_dummy.c ****  * This program is free software; you can redistribute it and/or modify
  11:fb/fb_dummy.c ****  * it under the terms of the GNU General Public License as published by
  12:fb/fb_dummy.c ****  * the Free Software Foundation; either version 2 of the License, or
  13:fb/fb_dummy.c ****  * (at your option) any later version.
  14:fb/fb_dummy.c ****  *
  15:fb/fb_dummy.c ****  * This program is distributed in the hope that it will be useful,
  16:fb/fb_dummy.c ****  * but WITHOUT ANY WARRANTY; without even the implied warranty of
  17:fb/fb_dummy.c ****  * MERCHANTABILITY or FITNESS FOR A PARTICULAR PURPOSE.  See the
  18:fb/fb_dummy.c ****  * GNU General Public License for more details.
  19:fb/fb_dummy.c ****  *
  20:fb/fb_dummy.c ****  * You should have received a copy of the GNU General Public License along
  21:fb/fb_dummy.c ****  * with this program; if not, write to the Free Software Foundation, Inc.,
  22:fb/fb_dummy.c ****  * 51 Franklin Street, Fifth Floor, Boston, MA 02110-1301 USA.
  23:fb/fb_dummy.c ****  *
  24:fb/fb_dummy.c ****  */
  25:fb/fb_dummy.c **** 
  26:fb/fb_dummy.c **** #include <fb/framebuffer.h>
  27:fb/fb_dummy.c **** #include <defines.h>
  28:fb/fb_dummy.c **** 
  29:fb/fb_dummy.c **** static void
  30:fb/fb_dummy.c **** fb_dummy_init(){
  17              		.loc 1 30 0
  18              		.cfi_startproc
  19              		@ args = 0, pretend = 0, frame = 0
  20              		@ frame_needed = 0, uses_anonymous_args = 0
  21              		@ link register save eliminated.
  31:fb/fb_dummy.c **** }
  22              		.loc 1 31 0
  23 0000 1EFF2FE1 		bx	lr
  24              		.cfi_endproc
  25              	.LFE12:
  27              		.section	.text.fb_dummy_clear,"ax",%progbits
  28              		.align	2
  30              	fb_dummy_clear:
  31              	.LFB13:
  32:fb/fb_dummy.c **** 
  33:fb/fb_dummy.c **** static void
  34:fb/fb_dummy.c **** fb_dummy_clear(){
  32              		.loc 1 34 0
  33              		.cfi_startproc
  34              		@ args = 0, pretend = 0, frame = 0
  35              		@ frame_needed = 0, uses_anonymous_args = 0
  36              		@ link register save eliminated.
  35:fb/fb_dummy.c **** }
  37              		.loc 1 35 0
  38 0000 1EFF2FE1 		bx	lr
  39              		.cfi_endproc
  40              	.LFE13:
  42              		.section	.text.fb_dummy_boxto,"ax",%progbits
  43              		.align	2
  45              	fb_dummy_boxto:
  46              	.LFB14:
  36:fb/fb_dummy.c **** 
  37:fb/fb_dummy.c **** static void
  38:fb/fb_dummy.c **** fb_dummy_boxto(uint16_t x,uint16_t y){
  47              		.loc 1 38 0
  48              		.cfi_startproc
  49              		@ args = 0, pretend = 0, frame = 0
  50              		@ frame_needed = 0, uses_anonymous_args = 0
  51              		@ link register save eliminated.
  52              	.LVL0:
  39:fb/fb_dummy.c **** 	framebuffer->cursor_x = x;
  53              		.loc 1 39 0
  54 0000 0C309FE5 		ldr	r3, .L4
  55 0004 003093E5 		ldr	r3, [r3, #0]
  56 0008 B402C3E1 		strh	r0, [r3, #36]	@ movhi
  40:fb/fb_dummy.c **** 	framebuffer->cursor_y = y;
  57              		.loc 1 40 0
  58 000c B612C3E1 		strh	r1, [r3, #38]	@ movhi
  41:fb/fb_dummy.c **** }
  59              		.loc 1 41 0
  60 0010 1EFF2FE1 		bx	lr
  61              	.L5:
  62              		.align	2
  63              	.L4:
  64 0014 00000000 		.word	.LANCHOR0
  65              		.cfi_endproc
  66              	.LFE14:
  68              		.section	.text.fb_dummy_lineto,"ax",%progbits
  69              		.align	2
  71              	fb_dummy_lineto:
  72              	.LFB15:
  42:fb/fb_dummy.c **** 
  43:fb/fb_dummy.c **** static void
  44:fb/fb_dummy.c **** fb_dummy_lineto(uint16_t x,uint16_t y){
  73              		.loc 1 44 0
  74              		.cfi_startproc
  75              		@ args = 0, pretend = 0, frame = 0
  76              		@ frame_needed = 0, uses_anonymous_args = 0
  77              		@ link register save eliminated.
  78              	.LVL1:
  45:fb/fb_dummy.c **** 	framebuffer->cursor_x = x;
  79              		.loc 1 45 0
  80 0000 0C309FE5 		ldr	r3, .L7
  81 0004 003093E5 		ldr	r3, [r3, #0]
  82 0008 B402C3E1 		strh	r0, [r3, #36]	@ movhi
  46:fb/fb_dummy.c **** 	framebuffer->cursor_y = y;
  83              		.loc 1 46 0
  84 000c B612C3E1 		strh	r1, [r3, #38]	@ movhi
  47:fb/fb_dummy.c **** }
  85              		.loc 1 47 0
  86 0010 1EFF2FE1 		bx	lr
  87              	.L8:
  88              		.align	2
  89              	.L7:
  90 0014 00000000 		.word	.LANCHOR0
  91              		.cfi_endproc
  92              	.LFE15:
  94              		.section	.text.fb_dummy_putstr,"ax",%progbits
  95              		.align	2
  97              	fb_dummy_putstr:
  98              	.LFB16:
  48:fb/fb_dummy.c **** 
  49:fb/fb_dummy.c **** static int
  50:fb/fb_dummy.c **** fb_dummy_putstr(__unused char *c, __unused int maxwidth){
  99              		.loc 1 50 0
 100              		.cfi_startproc
 101              		@ args = 0, pretend = 0, frame = 0
 102              		@ frame_needed = 0, uses_anonymous_args = 0
 103              		@ link register save eliminated.
 104              	.LVL2:
  51:fb/fb_dummy.c **** 	return 0;
  52:fb/fb_dummy.c **** }
 105              		.loc 1 52 0
 106 0000 0000A0E3 		mov	r0, #0
 107              	.LVL3:
 108 0004 1EFF2FE1 		bx	lr
 109              		.cfi_endproc
 110              	.LFE16:
 112              		.section	.text.fb_dummy_flush,"ax",%progbits
 113              		.align	2
 115              	fb_dummy_flush:
 116              	.LFB17:
  53:fb/fb_dummy.c **** 
  54:fb/fb_dummy.c **** static void
  55:fb/fb_dummy.c **** fb_dummy_flush(){
 117              		.loc 1 55 0
 118              		.cfi_startproc
 119              		@ args = 0, pretend = 0, frame = 0
 120              		@ frame_needed = 0, uses_anonymous_args = 0
 121              		@ link register save eliminated.
  56:fb/fb_dummy.c **** }
 122              		.loc 1 56 0
 123 0000 1EFF2FE1 		bx	lr
 124              		.cfi_endproc
 125              	.LFE17:
 127              		.global	fb_dummy_framebuffer
 128              		.global	framebuffer
 129              		.data
 130              		.align	2
 131              		.set	.LANCHOR0,. + 0
 134              	framebuffer:
 135 0000 00000000 		.word	fb_dummy_framebuffer
 138              	fb_dummy_framebuffer:
 139 0004 64756D6D 		.ascii	"dummyfb\000"
 139      79666200 
 140 000c 00000000 		.word	fb_dummy_init
 141 0010 00000000 		.word	fb_dummy_clear
 142 0014 00000000 		.word	fb_dummy_boxto
 143 0018 00000000 		.word	fb_dummy_lineto
 144 001c 00000000 		.word	fb_dummy_putstr
 145 0020 00000000 		.word	fb_dummy_flush
 146 0024 8000     		.short	128
 147 0026 4000     		.short	64
 148 0028 00000000 		.space	16
 148      00000000 
 148      00000000 
 148      00000000 
 149              		.text
 150              	.Letext0: