   1              		.file	"rffe_gta0x_triband.c"
   9              	.Ltext0:
  10              		.cfi_sections	.debug_frame
  11              		.section	.text.rffe_mode,"ax",%progbits
  12              		.align	2
  13              		.global	rffe_mode
  15              	rffe_mode:
  16              	.LFB3:
  17              		.file 1 "board/gta0x/rffe_gta0x_triband.c"
   1:board/gta0x/rffe_gta0x_triband.c **** #include <stdint.h>
   2:board/gta0x/rffe_gta0x_triband.c **** #include <stdio.h>
   3:board/gta0x/rffe_gta0x_triband.c **** 
   4:board/gta0x/rffe_gta0x_triband.c **** #include <debug.h>
   5:board/gta0x/rffe_gta0x_triband.c **** #include <memory.h>
   6:board/gta0x/rffe_gta0x_triband.c **** #include <rffe.h>
   7:board/gta0x/rffe_gta0x_triband.c **** #include <calypso/tsp.h>
   8:board/gta0x/rffe_gta0x_triband.c **** #include <rf/trf6151.h>
   9:board/gta0x/rffe_gta0x_triband.c **** 
  10:board/gta0x/rffe_gta0x_triband.c **** /* This is a value that has been measured on the C123 by Harald: 71dBm,
  11:board/gta0x/rffe_gta0x_triband.c ****    it is the difference between the input level at the antenna and what
  12:board/gta0x/rffe_gta0x_triband.c ****    the DSP reports, subtracted by the total gain of the TRF6151 */
  13:board/gta0x/rffe_gta0x_triband.c **** #define SYSTEM_INHERENT_GAIN	71
  14:board/gta0x/rffe_gta0x_triband.c **** 
  15:board/gta0x/rffe_gta0x_triband.c **** /* describe how the RF frontend is wired on the Openmoko GTA0x boards */
  16:board/gta0x/rffe_gta0x_triband.c **** 
  17:board/gta0x/rffe_gta0x_triband.c **** #define		RITA_RESET	TSPACT(0)	/* Reset of the Rita TRF6151 */
  18:board/gta0x/rffe_gta0x_triband.c **** #define		PA_ENABLE	TSPACT(9)	/* Enable the Power Amplifier */
  19:board/gta0x/rffe_gta0x_triband.c **** #define		GSM_TXEN	TSPACT(3)	/* PA GSM switch, low-active */
  20:board/gta0x/rffe_gta0x_triband.c **** 
  21:board/gta0x/rffe_gta0x_triband.c **** /* All VCn controls are low-active */
  22:board/gta0x/rffe_gta0x_triband.c **** #define		ASM_VC1		TSPACT(2)	/* Antenna switch VC1 */
  23:board/gta0x/rffe_gta0x_triband.c **** #define		ASM_VC2		TSPACT(1)	/* Antenna switch VC2 */
  24:board/gta0x/rffe_gta0x_triband.c **** #define		ASM_VC3		TSPACT(4)	/* Antenna switch VC3 */
  25:board/gta0x/rffe_gta0x_triband.c **** 
  26:board/gta0x/rffe_gta0x_triband.c **** #define		IOTA_STROBE	TSPEN(0)	/* Strobe for the Iota TSP */
  27:board/gta0x/rffe_gta0x_triband.c **** #define		RITA_STROBE	TSPEN(2)	/* Strobe for the Rita TSP */
  28:board/gta0x/rffe_gta0x_triband.c **** 
  29:board/gta0x/rffe_gta0x_triband.c **** /* switch RF Frontend Mode */
  30:board/gta0x/rffe_gta0x_triband.c **** void rffe_mode(enum gsm_band band, int tx)
  31:board/gta0x/rffe_gta0x_triband.c **** {
  18              		.loc 1 31 0
  19              		.cfi_startproc
  20              		@ args = 0, pretend = 0, frame = 0
  21              		@ frame_needed = 0, uses_anonymous_args = 0
  22              	.LVL0:
  23 0000 30402DE9 		stmfd	sp!, {r4, r5, lr}
  24              	.LCFI0:
  25              		.cfi_def_cfa_offset 12
  26              		.loc 1 31 0
  27 0004 0040A0E1 		mov	r4, r0
  28              		.cfi_offset 14, -4
  29              		.cfi_offset 5, -8
  30              		.cfi_offset 4, -12
  31 0008 0150A0E1 		mov	r5, r1
  32:board/gta0x/rffe_gta0x_triband.c **** 	uint16_t tspact = tsp_act_state();
  32              		.loc 1 32 0
  33 000c FEFFFFEB 		bl	tsp_act_state
  34              	.LVL1:
  33:board/gta0x/rffe_gta0x_triband.c **** 
  34:board/gta0x/rffe_gta0x_triband.c **** 	/* First we mask off all bits from the state cache */
  35:board/gta0x/rffe_gta0x_triband.c **** 	tspact &= ~PA_ENABLE;
  36:board/gta0x/rffe_gta0x_triband.c **** 	tspact &= ~GSM_TXEN;
  35              		.loc 1 36 0
  36 0010 6C309FE5 		ldr	r3, .L9
  37 0014 033000E0 		and	r3, r0, r3
  38              	.LVL2:
  37:board/gta0x/rffe_gta0x_triband.c **** 	tspact |= ASM_VC1 | ASM_VC2 | ASM_VC3; /* low-active */
  38:board/gta0x/rffe_gta0x_triband.c **** 
  39:board/gta0x/rffe_gta0x_triband.c **** 	switch (band) {
  39              		.loc 1 39 0
  40 0018 080054E3 		cmp	r4, #8
  37:board/gta0x/rffe_gta0x_triband.c **** 	tspact |= ASM_VC1 | ASM_VC2 | ASM_VC3; /* low-active */
  41              		.loc 1 37 0
  42 001c 160083E3 		orr	r0, r3, #22
  43              	.LVL3:
  40:board/gta0x/rffe_gta0x_triband.c **** 	case GSM_BAND_850:
  41:board/gta0x/rffe_gta0x_triband.c **** 	case GSM_BAND_900:
  42:board/gta0x/rffe_gta0x_triband.c **** 	case GSM_BAND_1800:
  43:board/gta0x/rffe_gta0x_triband.c **** 		break;
  44:board/gta0x/rffe_gta0x_triband.c **** 	case GSM_BAND_1900:
  45:board/gta0x/rffe_gta0x_triband.c **** 		tspact &= ~ASM_VC2;
  44              		.loc 1 45 0
  45 0020 0200C003 		biceq	r0, r0, #2
  46              	.LVL4:
  46:board/gta0x/rffe_gta0x_triband.c **** 		break;
  47:board/gta0x/rffe_gta0x_triband.c **** 	default:
  48:board/gta0x/rffe_gta0x_triband.c **** 		/* TODO return/signal error here */
  49:board/gta0x/rffe_gta0x_triband.c **** 		break;
  50:board/gta0x/rffe_gta0x_triband.c **** 	}
  51:board/gta0x/rffe_gta0x_triband.c **** 
  52:board/gta0x/rffe_gta0x_triband.c **** #ifdef CONFIG_TX_ENABLE
  53:board/gta0x/rffe_gta0x_triband.c **** 	/* Then we selectively set the bits on, if required */
  54:board/gta0x/rffe_gta0x_triband.c **** 	if (tx) {
  47              		.loc 1 54 0
  48 0024 000055E3 		cmp	r5, #0
  49 0028 1300000A 		beq	.L4
  55:board/gta0x/rffe_gta0x_triband.c **** 		switch (band) {
  50              		.loc 1 55 0
  51 002c 014044E2 		sub	r4, r4, #1
  52              	.LVL5:
  53 0030 070054E3 		cmp	r4, #7
  54 0034 04F19F97 		ldrls	pc, [pc, r4, asl #2]
  55 0038 0E0000EA 		b	.L5
  56              	.L8:
  57 003c 5C000000 		.word	.L6
  58 0040 5C000000 		.word	.L6
  59 0044 78000000 		.word	.L5
  60 0048 6C000000 		.word	.L7
  61 004c 78000000 		.word	.L5
  62 0050 78000000 		.word	.L5
  63 0054 78000000 		.word	.L5
  64 0058 6C000000 		.word	.L7
  65              	.L6:
  56:board/gta0x/rffe_gta0x_triband.c **** 		case GSM_BAND_850:
  57:board/gta0x/rffe_gta0x_triband.c **** 		case GSM_BAND_900:
  58:board/gta0x/rffe_gta0x_triband.c **** 			tspact &= ~ASM_VC3;
  66              		.loc 1 58 0
  67 005c 1000C0E3 		bic	r0, r0, #16
  68              	.LVL6:
  69 0060 0008A0E1 		mov	r0, r0, asl #16
  70 0064 2008A0E1 		mov	r0, r0, lsr #16
  71              	.LVL7:
  59:board/gta0x/rffe_gta0x_triband.c **** 			break;
  72              		.loc 1 59 0
  73 0068 020000EA 		b	.L5
  74              	.L7:
  60:board/gta0x/rffe_gta0x_triband.c **** 		case GSM_BAND_1800:
  61:board/gta0x/rffe_gta0x_triband.c **** 		case GSM_BAND_1900:
  62:board/gta0x/rffe_gta0x_triband.c **** 			tspact &= ~ASM_VC1;
  75              		.loc 1 62 0
  76 006c 14309FE5 		ldr	r3, .L9+4
  77 0070 033000E0 		and	r3, r0, r3
  78              	.LVL8:
  63:board/gta0x/rffe_gta0x_triband.c **** 			tspact |= ASM_VC2;
  64:board/gta0x/rffe_gta0x_triband.c **** 			tspact |= GSM_TXEN;
  79              		.loc 1 64 0
  80 0074 0A0083E3 		orr	r0, r3, #10
  81              	.LVL9:
  82              	.L5:
  65:board/gta0x/rffe_gta0x_triband.c **** 			break;
  66:board/gta0x/rffe_gta0x_triband.c **** 		default:
  67:board/gta0x/rffe_gta0x_triband.c **** 			break;
  68:board/gta0x/rffe_gta0x_triband.c **** 		}
  69:board/gta0x/rffe_gta0x_triband.c **** 		tspact |= PA_ENABLE;
  83              		.loc 1 69 0
  84 0078 020C80E3 		orr	r0, r0, #512
  85              	.LVL10:
  86              	.L4:
  70:board/gta0x/rffe_gta0x_triband.c **** 	}
  71:board/gta0x/rffe_gta0x_triband.c **** #endif /* TRANSMIT_SUPPORT */
  72:board/gta0x/rffe_gta0x_triband.c **** 
  73:board/gta0x/rffe_gta0x_triband.c **** 	tsp_act_update(tspact);
  74:board/gta0x/rffe_gta0x_triband.c **** }
  87              		.loc 1 74 0
  88 007c 3040BDE8 		ldmfd	sp!, {r4, r5, lr}
  73:board/gta0x/rffe_gta0x_triband.c **** 	tsp_act_update(tspact);
  89              		.loc 1 73 0
  90 0080 FEFFFFEA 		b	tsp_act_update
  91              	.LVL11:
  92              	.L10:
  93              		.align	2
  94              	.L9:
  95 0084 F7FD0000 		.word	65015
  96 0088 FBFF0000 		.word	65531
  97              		.cfi_endproc
  98              	.LFE3:
 100              		.section	.text.rffe_get_rx_ports,"ax",%progbits
 101              		.align	2
 102              		.global	rffe_get_rx_ports
 104              	rffe_get_rx_ports:
 105              	.LFB4:
  75:board/gta0x/rffe_gta0x_triband.c **** 
  76:board/gta0x/rffe_gta0x_triband.c **** /* Returns RF wiring */
  77:board/gta0x/rffe_gta0x_triband.c **** uint32_t rffe_get_rx_ports(void)
  78:board/gta0x/rffe_gta0x_triband.c **** {
 106              		.loc 1 78 0
 107              		.cfi_startproc
 108              		@ args = 0, pretend = 0, frame = 0
 109              		@ frame_needed = 0, uses_anonymous_args = 0
 110              		@ link register save eliminated.
  79:board/gta0x/rffe_gta0x_triband.c **** 	return (1 << PORT_LO) | (1 << PORT_DCS1800) | (1 << PORT_PCS1900);
  80:board/gta0x/rffe_gta0x_triband.c **** }
 111              		.loc 1 80 0
 112 0000 3100A0E3 		mov	r0, #49
 113 0004 1EFF2FE1 		bx	lr
 114              		.cfi_endproc
 115              	.LFE4:
 117              		.section	.text.rffe_get_tx_ports,"ax",%progbits
 118              		.align	2
 119              		.global	rffe_get_tx_ports
 121              	rffe_get_tx_ports:
 122              	.LFB5:
  81:board/gta0x/rffe_gta0x_triband.c **** 
  82:board/gta0x/rffe_gta0x_triband.c **** uint32_t rffe_get_tx_ports(void)
  83:board/gta0x/rffe_gta0x_triband.c **** {
 123              		.loc 1 83 0
 124              		.cfi_startproc
 125              		@ args = 0, pretend = 0, frame = 0
 126              		@ frame_needed = 0, uses_anonymous_args = 0
 127              		@ link register save eliminated.
  84:board/gta0x/rffe_gta0x_triband.c **** 	return (1 << PORT_LO) | (1 << PORT_HI);
  85:board/gta0x/rffe_gta0x_triband.c **** }
 128              		.loc 1 85 0
 129 0000 0300A0E3 		mov	r0, #3
 130 0004 1EFF2FE1 		bx	lr
 131              		.cfi_endproc
 132              	.LFE5:
 134              		.section	.text.rffe_iq_swapped,"ax",%progbits
 135              		.align	2
 136              		.global	rffe_iq_swapped
 138              	rffe_iq_swapped:
 139              	.LFB6:
  86:board/gta0x/rffe_gta0x_triband.c **** 
  87:board/gta0x/rffe_gta0x_triband.c **** /* Returns need for IQ swap */
  88:board/gta0x/rffe_gta0x_triband.c **** int rffe_iq_swapped(uint16_t band_arfcn, int tx)
  89:board/gta0x/rffe_gta0x_triband.c **** {
 140              		.loc 1 89 0
 141              		.cfi_startproc
 142              		@ args = 0, pretend = 0, frame = 0
 143              		@ frame_needed = 0, uses_anonymous_args = 0
 144              		@ link register save eliminated.
 145              	.LVL12:
 146              		.loc 1 89 0
 147 0000 0008A0E1 		mov	r0, r0, asl #16
 148              	.LVL13:
  90:board/gta0x/rffe_gta0x_triband.c **** 	return trf6151_iq_swapped(band_arfcn, tx);
 149              		.loc 1 90 0
 150 0004 2008A0E1 		mov	r0, r0, lsr #16
  91:board/gta0x/rffe_gta0x_triband.c **** }
 151              		.loc 1 91 0
  90:board/gta0x/rffe_gta0x_triband.c **** 	return trf6151_iq_swapped(band_arfcn, tx);
 152              		.loc 1 90 0
 153 0008 FEFFFFEA 		b	trf6151_iq_swapped
 154              		.cfi_endproc
 155              	.LFE6:
 157              		.section	.text.rffe_init,"ax",%progbits
 158              		.align	2
 159              		.global	rffe_init
 161              	rffe_init:
 162              	.LFB7:
  92:board/gta0x/rffe_gta0x_triband.c **** 
  93:board/gta0x/rffe_gta0x_triband.c **** 
  94:board/gta0x/rffe_gta0x_triband.c **** #define MCU_SW_TRACE	0xfffef00e
  95:board/gta0x/rffe_gta0x_triband.c **** #define ARM_CONF_REG	0xfffef006
  96:board/gta0x/rffe_gta0x_triband.c **** 
  97:board/gta0x/rffe_gta0x_triband.c **** void rffe_init(void)
  98:board/gta0x/rffe_gta0x_triband.c **** {
 163              		.loc 1 98 0
 164              		.cfi_startproc
 165              		@ args = 0, pretend = 0, frame = 0
 166              		@ frame_needed = 0, uses_anonymous_args = 0
  99:board/gta0x/rffe_gta0x_triband.c **** 	uint16_t reg;
 100:board/gta0x/rffe_gta0x_triband.c **** 
 101:board/gta0x/rffe_gta0x_triband.c **** 	reg = readw(ARM_CONF_REG);
 167              		.loc 1 101 0
 168 0000 44309FE5 		ldr	r3, .L15
 102:board/gta0x/rffe_gta0x_triband.c **** 	reg &= ~ (1 << 7);	/* TSPACT4 I/O function, not nRDYMEM */
 169              		.loc 1 102 0
 170 0004 44209FE5 		ldr	r2, .L15+4
 101:board/gta0x/rffe_gta0x_triband.c **** 	reg = readw(ARM_CONF_REG);
 171              		.loc 1 101 0
 172 0008 B91F53E1 		ldrh	r1, [r3, #-249]
 173              	.LVL14:
 174              		.loc 1 102 0
 175 000c 022001E0 		and	r2, r1, r2
 176              	.LVL15:
  98:board/gta0x/rffe_gta0x_triband.c **** {
 177              		.loc 1 98 0
 178 0010 04E02DE5 		str	lr, [sp, #-4]!
 179              	.LCFI1:
 180              		.cfi_def_cfa_offset 4
 103:board/gta0x/rffe_gta0x_triband.c **** 	writew(reg, ARM_CONF_REG);
 181              		.loc 1 103 0
 182 0014 B92F43E1 		strh	r2, [r3, #-249]	@ movhi
 104:board/gta0x/rffe_gta0x_triband.c **** 
 105:board/gta0x/rffe_gta0x_triband.c **** 	reg = readw(MCU_SW_TRACE);
 106:board/gta0x/rffe_gta0x_triband.c **** 	reg &= ~(1 << 1);	/* TSPACT9 I/O function, not MAS(1) */
 183              		.loc 1 106 0
 184 0018 34209FE5 		ldr	r2, .L15+8
 185              	.LVL16:
 105:board/gta0x/rffe_gta0x_triband.c **** 	reg = readw(MCU_SW_TRACE);
 186              		.loc 1 105 0
 187 001c B11F53E1 		ldrh	r1, [r3, #-241]
 188              	.LVL17:
 107:board/gta0x/rffe_gta0x_triband.c **** 	writew(reg, MCU_SW_TRACE);
 108:board/gta0x/rffe_gta0x_triband.c **** 
 109:board/gta0x/rffe_gta0x_triband.c **** 	/* Configure the TSPEN which is connected to the TWL3025 */
 110:board/gta0x/rffe_gta0x_triband.c **** 	tsp_setup(IOTA_STROBE, 1, 0, 0);
 189              		.loc 1 110 0
 190 0020 0000A0E3 		mov	r0, #0
 106:board/gta0x/rffe_gta0x_triband.c **** 	reg &= ~(1 << 1);	/* TSPACT9 I/O function, not MAS(1) */
 191              		.loc 1 106 0
 192 0024 022001E0 		and	r2, r1, r2
 193              	.LVL18:
 107:board/gta0x/rffe_gta0x_triband.c **** 	writew(reg, MCU_SW_TRACE);
 194              		.loc 1 107 0
 195 0028 B12F43E1 		strh	r2, [r3, #-241]	@ movhi
 196              		.loc 1 110 0
 197 002c 0110A0E3 		mov	r1, #1
 198 0030 0020A0E1 		mov	r2, r0
 199              	.LVL19:
 200 0034 0030A0E1 		mov	r3, r0
 201              		.cfi_offset 14, -4
 202 0038 FEFFFFEB 		bl	tsp_setup
 111:board/gta0x/rffe_gta0x_triband.c **** 
 112:board/gta0x/rffe_gta0x_triband.c **** 	trf6151_init(RITA_STROBE, RITA_RESET);
 203              		.loc 1 112 0
 204 003c 0200A0E3 		mov	r0, #2
 205 0040 0110A0E3 		mov	r1, #1
 113:board/gta0x/rffe_gta0x_triband.c **** }
 206              		.loc 1 113 0
 207 0044 04E09DE4 		ldr	lr, [sp], #4
 112:board/gta0x/rffe_gta0x_triband.c **** 	trf6151_init(RITA_STROBE, RITA_RESET);
 208              		.loc 1 112 0
 209 0048 FEFFFFEA 		b	trf6151_init
 210              	.L16:
 211              		.align	2
 212              	.L15:
 213 004c FFF0FEFF 		.word	-69377
 214 0050 7FFF0000 		.word	65407
 215 0054 FDFF0000 		.word	65533
 216              		.cfi_endproc
 217              	.LFE7:
 219              		.section	.text.rffe_get_gain,"ax",%progbits
 220              		.align	2
 221              		.global	rffe_get_gain
 223              	rffe_get_gain:
 224              	.LFB8:
 114:board/gta0x/rffe_gta0x_triband.c **** 
 115:board/gta0x/rffe_gta0x_triband.c **** uint8_t rffe_get_gain(void)
 116:board/gta0x/rffe_gta0x_triband.c **** {
 225              		.loc 1 116 0
 226              		.cfi_startproc
 227              		@ args = 0, pretend = 0, frame = 0
 228              		@ frame_needed = 0, uses_anonymous_args = 0
 229              		@ link register save eliminated.
 117:board/gta0x/rffe_gta0x_triband.c **** 	return trf6151_get_gain();
 118:board/gta0x/rffe_gta0x_triband.c **** }
 230              		.loc 1 118 0
 117:board/gta0x/rffe_gta0x_triband.c **** 	return trf6151_get_gain();
 231              		.loc 1 117 0
 232 0000 FEFFFFEA 		b	trf6151_get_gain
 233              		.cfi_endproc
 234              	.LFE8:
 236              		.section	.text.rffe_set_gain,"ax",%progbits
 237              		.align	2
 238              		.global	rffe_set_gain
 240              	rffe_set_gain:
 241              	.LFB9:
 119:board/gta0x/rffe_gta0x_triband.c **** 
 120:board/gta0x/rffe_gta0x_triband.c **** void rffe_set_gain(uint8_t dbm)
 121:board/gta0x/rffe_gta0x_triband.c **** {
 242              		.loc 1 121 0
 243              		.cfi_startproc
 244              		@ args = 0, pretend = 0, frame = 0
 245              		@ frame_needed = 0, uses_anonymous_args = 0
 246              		@ link register save eliminated.
 247              	.LVL20:
 248              		.loc 1 121 0
 249 0000 FF0000E2 		and	r0, r0, #255
 250              	.LVL21:
 122:board/gta0x/rffe_gta0x_triband.c **** 	trf6151_set_gain(dbm);
 123:board/gta0x/rffe_gta0x_triband.c **** }
 251              		.loc 1 123 0
 122:board/gta0x/rffe_gta0x_triband.c **** 	trf6151_set_gain(dbm);
 252              		.loc 1 122 0
 253 0004 FEFFFFEA 		b	trf6151_set_gain
 254              		.cfi_endproc
 255              	.LFE9:
 257              		.section	.text.rffe_compute_gain,"ax",%progbits
 258              		.align	2
 259              		.global	rffe_compute_gain
 261              	rffe_compute_gain:
 262              	.LFB10:
 124:board/gta0x/rffe_gta0x_triband.c **** 
 125:board/gta0x/rffe_gta0x_triband.c **** const uint8_t system_inherent_gain = SYSTEM_INHERENT_GAIN;
 126:board/gta0x/rffe_gta0x_triband.c **** 
 127:board/gta0x/rffe_gta0x_triband.c **** /* Given the expected input level of exp_inp dBm/8 and the target of target_bb
 128:board/gta0x/rffe_gta0x_triband.c ****  * dBm8, configure the RF Frontend with the respective gain */
 129:board/gta0x/rffe_gta0x_triband.c **** void rffe_compute_gain(int16_t exp_inp, int16_t target_bb)
 130:board/gta0x/rffe_gta0x_triband.c **** {
 263              		.loc 1 130 0
 264              		.cfi_startproc
 265              		@ args = 0, pretend = 0, frame = 0
 266              		@ frame_needed = 0, uses_anonymous_args = 0
 267              		@ link register save eliminated.
 268              	.LVL22:
 269              		.loc 1 130 0
 270 0000 0008A0E1 		mov	r0, r0, asl #16
 271              	.LVL23:
 272 0004 0118A0E1 		mov	r1, r1, asl #16
 273              	.LVL24:
 131:board/gta0x/rffe_gta0x_triband.c **** 	trf6151_compute_gain(exp_inp, target_bb);
 274              		.loc 1 131 0
 275 0008 4008A0E1 		mov	r0, r0, asr #16
 276 000c 4118A0E1 		mov	r1, r1, asr #16
 132:board/gta0x/rffe_gta0x_triband.c **** }
 277              		.loc 1 132 0
 131:board/gta0x/rffe_gta0x_triband.c **** 	trf6151_compute_gain(exp_inp, target_bb);
 278              		.loc 1 131 0
 279 0010 FEFFFFEA 		b	trf6151_compute_gain
 280              		.cfi_endproc
 281              	.LFE10:
 283              		.section	.text.rffe_rx_win_ctrl,"ax",%progbits
 284              		.align	2
 285              		.global	rffe_rx_win_ctrl
 287              	rffe_rx_win_ctrl:
 288              	.LFB11:
 133:board/gta0x/rffe_gta0x_triband.c **** 
 134:board/gta0x/rffe_gta0x_triband.c **** void rffe_rx_win_ctrl(int16_t exp_inp, int16_t target_bb)
 135:board/gta0x/rffe_gta0x_triband.c **** {
 289              		.loc 1 135 0
 290              		.cfi_startproc
 291              		@ args = 0, pretend = 0, frame = 0
 292              		@ frame_needed = 0, uses_anonymous_args = 0
 293              		@ link register save eliminated.
 294              	.LVL25:
 136:board/gta0x/rffe_gta0x_triband.c **** 	/* FIXME */
 137:board/gta0x/rffe_gta0x_triband.c **** }
 295              		.loc 1 137 0
 296 0000 1EFF2FE1 		bx	lr
 297              		.cfi_endproc
 298              	.LFE11:
 300              		.global	system_inherent_gain
 301              		.section	.rodata
 304              	system_inherent_gain:
 305 0000 47       		.byte	71
 306              		.text
 307              	.Letext0: