   1              		.file	"main.c"
   9              	.Ltext0:
  10              		.cfi_sections	.debug_frame
  11              		.section	.text.tspact_toggle,"ax",%progbits
  12              		.align	2
  14              	tspact_toggle:
  15              	.LFB61:
  16              		.file 1 "apps/layer1/main.c"
   1:apps/layer1/main.c **** /* main program of Free Software for Calypso Phone */
   2:apps/layer1/main.c **** 
   3:apps/layer1/main.c **** /* (C) 2010 by Harald Welte <laforge@gnumonks.org>
   4:apps/layer1/main.c ****  *
   5:apps/layer1/main.c ****  * All Rights Reserved
   6:apps/layer1/main.c ****  *
   7:apps/layer1/main.c ****  * This program is free software; you can redistribute it and/or modify
   8:apps/layer1/main.c ****  * it under the terms of the GNU General Public License as published by
   9:apps/layer1/main.c ****  * the Free Software Foundation; either version 2 of the License, or
  10:apps/layer1/main.c ****  * (at your option) any later version.
  11:apps/layer1/main.c ****  *
  12:apps/layer1/main.c ****  * This program is distributed in the hope that it will be useful,
  13:apps/layer1/main.c ****  * but WITHOUT ANY WARRANTY; without even the implied warranty of
  14:apps/layer1/main.c ****  * MERCHANTABILITY or FITNESS FOR A PARTICULAR PURPOSE.  See the
  15:apps/layer1/main.c ****  * GNU General Public License for more details.
  16:apps/layer1/main.c ****  *
  17:apps/layer1/main.c ****  * You should have received a copy of the GNU General Public License along
  18:apps/layer1/main.c ****  * with this program; if not, write to the Free Software Foundation, Inc.,
  19:apps/layer1/main.c ****  * 51 Franklin Street, Fifth Floor, Boston, MA 02110-1301 USA.
  20:apps/layer1/main.c ****  *
  21:apps/layer1/main.c ****  */
  22:apps/layer1/main.c **** 
  23:apps/layer1/main.c **** #include <stdint.h>
  24:apps/layer1/main.c **** #include <stdio.h>
  25:apps/layer1/main.c **** 
  26:apps/layer1/main.c **** #include <debug.h>
  27:apps/layer1/main.c **** #include <memory.h>
  28:apps/layer1/main.c **** #include <string.h>
  29:apps/layer1/main.c **** #include <delay.h>
  30:apps/layer1/main.c **** #include <rffe.h>
  31:apps/layer1/main.c **** #include <keypad.h>
  32:apps/layer1/main.c **** #include <board.h>
  33:apps/layer1/main.c **** 
  34:apps/layer1/main.c **** #include <abb/twl3025.h>
  35:apps/layer1/main.c **** #include <rf/trf6151.h>
  36:apps/layer1/main.c **** 
  37:apps/layer1/main.c **** #include <comm/sercomm.h>
  38:apps/layer1/main.c **** #include <comm/timer.h>
  39:apps/layer1/main.c **** 
  40:apps/layer1/main.c **** #include <calypso/clock.h>
  41:apps/layer1/main.c **** #include <calypso/tpu.h>
  42:apps/layer1/main.c **** #include <calypso/tsp.h>
  43:apps/layer1/main.c **** #include <calypso/irq.h>
  44:apps/layer1/main.c **** #include <calypso/misc.h>
  45:apps/layer1/main.c **** #include <calypso/sim.h>
  46:apps/layer1/main.c **** 
  47:apps/layer1/main.c **** #include <layer1/sync.h>
  48:apps/layer1/main.c **** #include <layer1/async.h>
  49:apps/layer1/main.c **** #include <layer1/tpu_window.h>
  50:apps/layer1/main.c **** #include <layer1/l23_api.h>
  51:apps/layer1/main.c **** 
  52:apps/layer1/main.c **** #include <fb/framebuffer.h>
  53:apps/layer1/main.c **** 
  54:apps/layer1/main.c **** const char *hr = "======================================================================\n";
  55:apps/layer1/main.c **** 
  56:apps/layer1/main.c **** /* MAIN program **************************************************************/
  57:apps/layer1/main.c **** 
  58:apps/layer1/main.c **** static void key_handler(enum key_codes code, enum key_states state);
  59:apps/layer1/main.c **** 
  60:apps/layer1/main.c **** int main(void)
  61:apps/layer1/main.c **** {
  62:apps/layer1/main.c **** 	uint8_t atr[20];
  63:apps/layer1/main.c **** 	uint8_t atrLength = 0;
  64:apps/layer1/main.c **** 
  65:apps/layer1/main.c **** 	board_init(1);
  66:apps/layer1/main.c **** 
  67:apps/layer1/main.c **** 	puts("\n\nOsmocomBB Layer 1 (revision " GIT_REVISION ")\n");
  68:apps/layer1/main.c **** 	puts(hr);
  69:apps/layer1/main.c **** 
  70:apps/layer1/main.c **** 	/* Dump device identification */
  71:apps/layer1/main.c **** 	dump_dev_id();
  72:apps/layer1/main.c **** 	puts(hr);
  73:apps/layer1/main.c **** 
  74:apps/layer1/main.c **** 	keypad_set_handler(&key_handler);
  75:apps/layer1/main.c **** 
  76:apps/layer1/main.c **** 	/* Dump clock config after PLL set */
  77:apps/layer1/main.c **** 	calypso_clk_dump();
  78:apps/layer1/main.c **** 	puts(hr);
  79:apps/layer1/main.c **** 
  80:apps/layer1/main.c **** 	fb_clear();
  81:apps/layer1/main.c **** 
  82:apps/layer1/main.c **** 	fb_setfg(FB_COLOR_BLACK);
  83:apps/layer1/main.c **** 	fb_setbg(FB_COLOR_WHITE);
  84:apps/layer1/main.c **** 	fb_setfont(FB_FONT_HELVB14);
  85:apps/layer1/main.c **** 
  86:apps/layer1/main.c **** 	fb_gotoxy(2,20);
  87:apps/layer1/main.c **** 	fb_putstr("Layer 1",framebuffer->width-4);
  88:apps/layer1/main.c **** 
  89:apps/layer1/main.c **** 	fb_setfg(FB_COLOR_RED);
  90:apps/layer1/main.c **** 	fb_setbg(FB_COLOR_BLUE);
  91:apps/layer1/main.c **** 
  92:apps/layer1/main.c **** 	fb_gotoxy(2,25);
  93:apps/layer1/main.c **** 	fb_boxto(framebuffer->width-3,38);
  94:apps/layer1/main.c **** 
  95:apps/layer1/main.c **** 	fb_setfg(FB_COLOR_WHITE);
  96:apps/layer1/main.c **** 	fb_setfont(FB_FONT_HELVR08);
  97:apps/layer1/main.c **** 	fb_gotoxy(8,33);
  98:apps/layer1/main.c **** 	fb_putstr("osmocom-bb",framebuffer->width-4);
  99:apps/layer1/main.c **** 
 100:apps/layer1/main.c **** 	fb_flush();
 101:apps/layer1/main.c **** 
 102:apps/layer1/main.c **** 	/* initialize SIM */
 103:apps/layer1/main.c **** 	calypso_sim_init();
 104:apps/layer1/main.c **** 
 105:apps/layer1/main.c **** 	puts("Power up simcard:\n");
 106:apps/layer1/main.c **** 	memset(atr,0,sizeof(atr));
 107:apps/layer1/main.c **** 	atrLength = calypso_sim_powerup(atr);
 108:apps/layer1/main.c **** 
 109:apps/layer1/main.c **** 	layer1_init();
 110:apps/layer1/main.c **** 
 111:apps/layer1/main.c **** 	tpu_frame_irq_en(1, 1);
 112:apps/layer1/main.c **** 
 113:apps/layer1/main.c **** 	while (1) {
 114:apps/layer1/main.c **** 		l1a_compl_execute();
 115:apps/layer1/main.c **** 		osmo_timers_update();
 116:apps/layer1/main.c **** 		sim_handler();
 117:apps/layer1/main.c **** 		l1a_l23_handler();
 118:apps/layer1/main.c **** 	}
 119:apps/layer1/main.c **** 
 120:apps/layer1/main.c **** 	/* NOT REACHED */
 121:apps/layer1/main.c **** 
 122:apps/layer1/main.c **** 	twl3025_power_off();
 123:apps/layer1/main.c **** }
 124:apps/layer1/main.c **** 
 125:apps/layer1/main.c **** static int afcout = 0;
 126:apps/layer1/main.c **** 
 127:apps/layer1/main.c **** static void tspact_toggle(uint8_t num)
 128:apps/layer1/main.c **** {
  17              		.loc 1 128 0
  18              		.cfi_startproc
  19              		@ args = 0, pretend = 0, frame = 0
  20              		@ frame_needed = 0, uses_anonymous_args = 0
  21              	.LVL0:
  22 0000 30402DE9 		stmfd	sp!, {r4, r5, lr}
  23              	.LCFI0:
  24              		.cfi_def_cfa_offset 12
  25              		.loc 1 128 0
  26 0004 0040A0E1 		mov	r4, r0
  27              		.cfi_offset 14, -4
  28              		.cfi_offset 5, -8
  29              		.cfi_offset 4, -12
 129:apps/layer1/main.c **** 	printf("TSPACT%u toggle\n", num);
 130:apps/layer1/main.c **** 	tsp_act_toggle((1 << num));
  30              		.loc 1 130 0
  31 0008 0150A0E3 		mov	r5, #1
 129:apps/layer1/main.c **** 	printf("TSPACT%u toggle\n", num);
  32              		.loc 1 129 0
  33 000c 0410A0E1 		mov	r1, r4
  34              		.loc 1 130 0
  35 0010 1544A0E1 		mov	r4, r5, asl r4
 129:apps/layer1/main.c **** 	printf("TSPACT%u toggle\n", num);
  36              		.loc 1 129 0
  37 0014 24009FE5 		ldr	r0, .L2
  38              	.LVL1:
  39 0018 FEFFFFEB 		bl	printf
  40              		.loc 1 130 0
  41 001c 0408A0E1 		mov	r0, r4, asl #16
  42 0020 2008A0E1 		mov	r0, r0, lsr #16
  43 0024 FEFFFFEB 		bl	tsp_act_toggle
  44              	.LBB34:
  45              	.LBB35:
  46              		.file 2 "include/calypso/tpu.h"
   1:include/calypso/tpu.h **** #ifndef _CALYPSO_TPU_H
   2:include/calypso/tpu.h **** #define _CALYPSO_TPU_H
   3:include/calypso/tpu.h **** 
   4:include/calypso/tpu.h **** #define BITS_PER_TDMA		1250
   5:include/calypso/tpu.h **** #define QBITS_PER_TDMA		(BITS_PER_TDMA * 4)	/* 5000 */
   6:include/calypso/tpu.h **** #define TPU_RANGE		QBITS_PER_TDMA
   7:include/calypso/tpu.h **** #define	SWITCH_TIME		(TPU_RANGE-10)
   8:include/calypso/tpu.h **** 
   9:include/calypso/tpu.h **** /* Assert or de-assert TPU reset */
  10:include/calypso/tpu.h **** void tpu_reset(int active);
  11:include/calypso/tpu.h **** /* Enable or Disable a new scenario loaded into the TPU */
  12:include/calypso/tpu.h **** void tpu_enable(int active);
  13:include/calypso/tpu.h **** /* Enable or Disable the clock of the TPU Module */
  14:include/calypso/tpu.h **** void tpu_clk_enable(int active);
  15:include/calypso/tpu.h **** /* Enable Frame Interrupt generation on next frame.  DSP will reset it */
  16:include/calypso/tpu.h **** void tpu_dsp_frameirq_enable(void);
  17:include/calypso/tpu.h **** /* Is a Frame interrupt still pending for the DSP ? */
  18:include/calypso/tpu.h **** int tpu_dsp_fameirq_pending(void);
  19:include/calypso/tpu.h **** /* Rewind the TPU, i.e. restart enqueueing instructions at the base addr */
  20:include/calypso/tpu.h **** void tpu_rewind(void);
  21:include/calypso/tpu.h **** /* Enqueue a raw TPU instruction */
  22:include/calypso/tpu.h **** void tpu_enqueue(uint16_t instr);
  23:include/calypso/tpu.h **** /* Initialize TPU and TPU driver */
  24:include/calypso/tpu.h **** void tpu_init(void);
  25:include/calypso/tpu.h **** /* (Busy)Wait until TPU is idle */
  26:include/calypso/tpu.h **** void tpu_wait_idle(void);
  27:include/calypso/tpu.h **** /* Enable FRAME interrupt generation */
  28:include/calypso/tpu.h **** void tpu_frame_irq_en(int mcu, int dsp);
  29:include/calypso/tpu.h **** /* Force the generation of a DSP interrupt */
  30:include/calypso/tpu.h **** void tpu_force_dsp_frame_irq(void);
  31:include/calypso/tpu.h **** 
  32:include/calypso/tpu.h **** /* Get the current TPU SYNCHRO register */
  33:include/calypso/tpu.h **** uint16_t tpu_get_synchro(void);
  34:include/calypso/tpu.h **** /* Get the current TPU OFFSET register */
  35:include/calypso/tpu.h **** uint16_t tpu_get_offset(void);
  36:include/calypso/tpu.h **** 
  37:include/calypso/tpu.h **** enum tpu_instr {
  38:include/calypso/tpu.h **** 	TPU_INSTR_AT		= (1 << 13),
  39:include/calypso/tpu.h **** 	TPU_INSTR_OFFSET	= (2 << 13),
  40:include/calypso/tpu.h **** 	TPU_INSTR_SYNCHRO	= (3 << 13),	/* Loading delta synchro value in TPU synchro register */
  41:include/calypso/tpu.h **** 	TPU_INSTR_WAIT		= (5 << 13),	/* Wait a certain period (in GSM qbits) */
  42:include/calypso/tpu.h **** 	TPU_INSTR_SLEEP		= (0 << 13),	/* Stop the sequencer by disabling TPU ENABLE bit in ctrl reg */
  43:include/calypso/tpu.h **** 	/* data processing */
  44:include/calypso/tpu.h **** 	TPU_INSTR_MOVE		= (4 << 13),
  45:include/calypso/tpu.h **** };
  46:include/calypso/tpu.h **** 
  47:include/calypso/tpu.h **** /* Addresses internal to the TPU, only accessible via MOVE */
  48:include/calypso/tpu.h **** enum tpu_reg_int {
  49:include/calypso/tpu.h **** 	TPUI_TSP_CTRL1	= 0x00,
  50:include/calypso/tpu.h **** 	TPUI_TSP_CTRL2	= 0x01,
  51:include/calypso/tpu.h **** 	TPUI_TX_1	= 0x04,
  52:include/calypso/tpu.h **** 	TPUI_TX_2	= 0x03,
  53:include/calypso/tpu.h **** 	TPUI_TX_3	= 0x02,
  54:include/calypso/tpu.h **** 	TPUI_TX_4	= 0x05,
  55:include/calypso/tpu.h **** 	TPUI_TSP_ACT_L	= 0x06,
  56:include/calypso/tpu.h **** 	TPUI_TSP_ACT_U	= 0x07,
  57:include/calypso/tpu.h **** 	TPUI_TSP_SET1	= 0x09,
  58:include/calypso/tpu.h **** 	TPUI_TSP_SET2	= 0x0a,
  59:include/calypso/tpu.h **** 	TPUI_TSP_SET3	= 0x0b,
  60:include/calypso/tpu.h **** 	TPUI_DSP_INT_PG	= 0x10,
  61:include/calypso/tpu.h **** 	TPUI_GAUGING_EN = 0x11,
  62:include/calypso/tpu.h **** };
  63:include/calypso/tpu.h **** 
  64:include/calypso/tpu.h **** enum tpui_ctrl2_bits {
  65:include/calypso/tpu.h **** 	TPUI_CTRL2_RD		= (1 << 0),
  66:include/calypso/tpu.h **** 	TPUI_CTRL2_WR		= (1 << 1),
  67:include/calypso/tpu.h **** };
  68:include/calypso/tpu.h **** 
  69:include/calypso/tpu.h **** static inline uint16_t tpu_mod5000(int16_t time)
  70:include/calypso/tpu.h **** {
  71:include/calypso/tpu.h **** 	if (time < 0)
  72:include/calypso/tpu.h **** 		return time + 5000;
  73:include/calypso/tpu.h **** 	if (time >= 5000)
  74:include/calypso/tpu.h **** 		return time - 5000;
  75:include/calypso/tpu.h **** 	return time;
  76:include/calypso/tpu.h **** }
  77:include/calypso/tpu.h **** 
  78:include/calypso/tpu.h **** /* Enqueue a SLEEP operation (stop sequencer by disabling TPU ENABLE bit) */
  79:include/calypso/tpu.h **** static inline void tpu_enq_sleep(void)
  80:include/calypso/tpu.h **** {
  81:include/calypso/tpu.h **** 	tpu_enqueue(TPU_INSTR_SLEEP);
  47              		.loc 2 81 0
  48 0028 0000A0E3 		mov	r0, #0
  49 002c FEFFFFEB 		bl	tpu_enqueue
  50              	.LBE35:
  51              	.LBE34:
 131:apps/layer1/main.c **** 	tpu_enq_sleep();
 132:apps/layer1/main.c **** 	tpu_enable(1);
  52              		.loc 1 132 0
  53 0030 0500A0E1 		mov	r0, r5
  54 0034 FEFFFFEB 		bl	tpu_enable
 133:apps/layer1/main.c **** 	tpu_wait_idle();
 134:apps/layer1/main.c **** }
  55              		.loc 1 134 0
  56 0038 3040BDE8 		ldmfd	sp!, {r4, r5, lr}
 133:apps/layer1/main.c **** 	tpu_wait_idle();
  57              		.loc 1 133 0
  58 003c FEFFFFEA 		b	tpu_wait_idle
  59              	.L3:
  60              		.align	2
  61              	.L2:
  62 0040 00000000 		.word	.LC0
  63              		.cfi_endproc
  64              	.LFE61:
  66              		.section	.text.key_handler,"ax",%progbits
  67              		.align	2
  69              	key_handler:
  70              	.LFB62:
 135:apps/layer1/main.c **** 
 136:apps/layer1/main.c **** static void key_handler(enum key_codes code, enum key_states state)
 137:apps/layer1/main.c **** {
  71              		.loc 1 137 0
  72              		.cfi_startproc
  73              		@ args = 0, pretend = 0, frame = 0
  74              		@ frame_needed = 0, uses_anonymous_args = 0
  75              	.LVL2:
 138:apps/layer1/main.c **** 	if (state != PRESSED)
  76              		.loc 1 138 0
  77 0000 000051E3 		cmp	r1, #0
 137:apps/layer1/main.c **** {
  78              		.loc 1 137 0
  79 0004 04E02DE5 		str	lr, [sp, #-4]!
  80              	.LCFI1:
  81              		.cfi_def_cfa_offset 4
  82              		.loc 1 138 0
  83 0008 04F09D14 		ldrne	pc, [sp], #4
  84              		.cfi_offset 14, -4
 139:apps/layer1/main.c **** 		return;
 140:apps/layer1/main.c **** 
 141:apps/layer1/main.c **** 	switch (code) {
  85              		.loc 1 141 0
  86 000c 040040E2 		sub	r0, r0, #4
  87              	.LVL3:
  88 0010 050050E3 		cmp	r0, #5
  89 0014 00F19F97 		ldrls	pc, [pc, r0, asl #2]
  90 0018 230000EA 		b	.L6
  91              	.L12:
  92 001c 34000000 		.word	.L7
  93 0020 3C000000 		.word	.L8
  94 0024 48000000 		.word	.L9
  95 0028 50000000 		.word	.L10
  96 002c AC000000 		.word	.L6
  97 0030 70000000 		.word	.L11
  98              	.L7:
 142:apps/layer1/main.c **** 	case KEY_4:
 143:apps/layer1/main.c **** 		tspact_toggle(6);	/* TRENA (RFFE) */
  99              		.loc 1 143 0
 100 0034 0600A0E3 		mov	r0, #6
 101              	.LVL4:
 102 0038 000000EA 		b	.L15
 103              	.LVL5:
 104              	.L8:
 144:apps/layer1/main.c **** 		break;
 145:apps/layer1/main.c **** 	case KEY_5:
 146:apps/layer1/main.c **** 		tspact_toggle(8);	/* GSM_TXEN (RFFE) */
 105              		.loc 1 146 0
 106 003c 0800A0E3 		mov	r0, #8
 107              	.LVL6:
 108              	.L15:
 109 0040 FEFFFFEB 		bl	tspact_toggle
 110              	.LVL7:
 147:apps/layer1/main.c **** 		break;
 111              		.loc 1 147 0
 112 0044 180000EA 		b	.L6
 113              	.LVL8:
 114              	.L9:
 148:apps/layer1/main.c **** 	case KEY_6:
 149:apps/layer1/main.c **** 		tspact_toggle(1);	/* PAENA (RFFE) */
 115              		.loc 1 149 0
 116 0048 0100A0E3 		mov	r0, #1
 117              	.LVL9:
 118 004c FBFFFFEA 		b	.L15
 119              	.LVL10:
 120              	.L10:
 150:apps/layer1/main.c **** 		break;
 151:apps/layer1/main.c **** 	case KEY_7:			/* decrement AFC OUT */
 152:apps/layer1/main.c **** 		afcout -= 100;
 121              		.loc 1 152 0
 122 0050 5C309FE5 		ldr	r3, .L17
 123 0054 002093E5 		ldr	r2, [r3, #0]
 124 0058 642042E2 		sub	r2, r2, #100
 153:apps/layer1/main.c **** 		if (afcout < -4096)
 125              		.loc 1 153 0
 126 005c 010A72E3 		cmn	r2, #4096
 152:apps/layer1/main.c **** 		afcout -= 100;
 127              		.loc 1 152 0
 128 0060 002083E5 		str	r2, [r3, #0]
 154:apps/layer1/main.c **** 			afcout = -4096;
 129              		.loc 1 154 0
 130 0064 4C209FB5 		ldrlt	r2, .L17+4
 153:apps/layer1/main.c **** 		if (afcout < -4096)
 131              		.loc 1 153 0
 132 0068 070000BA 		blt	.L16
 133 006c 070000EA 		b	.L14
 134              	.L11:
 155:apps/layer1/main.c **** 		twl3025_afc_set(afcout);
 156:apps/layer1/main.c **** 		printf("AFC OUT: %u\n", twl3025_afcout_get());
 157:apps/layer1/main.c **** 		break;
 158:apps/layer1/main.c **** 	case KEY_9:			/* increase AFC OUT */
 159:apps/layer1/main.c **** 		afcout += 100;
 135              		.loc 1 159 0
 136 0070 3C309FE5 		ldr	r3, .L17
 137 0074 001093E5 		ldr	r1, [r3, #0]
 138              	.LVL11:
 160:apps/layer1/main.c **** 		if (afcout > 4095)
 139              		.loc 1 160 0
 140 0078 3C209FE5 		ldr	r2, .L17+8
 159:apps/layer1/main.c **** 		afcout += 100;
 141              		.loc 1 159 0
 142 007c 641081E2 		add	r1, r1, #100
 143              		.loc 1 160 0
 144 0080 020051E1 		cmp	r1, r2
 159:apps/layer1/main.c **** 		afcout += 100;
 145              		.loc 1 159 0
 146 0084 001083E5 		str	r1, [r3, #0]
 147              		.loc 1 160 0
 148 0088 000000DA 		ble	.L14
 149              	.L16:
 161:apps/layer1/main.c **** 			afcout = 4095;
 150              		.loc 1 161 0
 151 008c 002083E5 		str	r2, [r3, #0]
 152              	.L14:
 162:apps/layer1/main.c **** 		twl3025_afc_set(afcout);
 153              		.loc 1 162 0
 154 0090 1C309FE5 		ldr	r3, .L17
 155 0094 F000D3E1 		ldrsh	r0, [r3, #0]
 156              	.LVL12:
 157 0098 FEFFFFEB 		bl	twl3025_afc_set
 163:apps/layer1/main.c **** 		printf("AFC OUT: %u\n", twl3025_afcout_get());
 158              		.loc 1 163 0
 159 009c FEFFFFEB 		bl	twl3025_afcout_get
 160 00a0 0010A0E1 		mov	r1, r0
 161 00a4 14009FE5 		ldr	r0, .L17+12
 162 00a8 FEFFFFEB 		bl	printf
 163              	.L6:
 164:apps/layer1/main.c **** 		break;
 165:apps/layer1/main.c **** 	default:
 166:apps/layer1/main.c **** 		break;
 167:apps/layer1/main.c **** 	}
 168:apps/layer1/main.c **** 	/* power down SIM, TODO:  this will happen with every key pressed,
 169:apps/layer1/main.c ****        put it somewhere else ! */
 170:apps/layer1/main.c **** 	calypso_sim_powerdown();
 171:apps/layer1/main.c **** }
 164              		.loc 1 171 0
 165 00ac 04E09DE4 		ldr	lr, [sp], #4
 170:apps/layer1/main.c **** 	calypso_sim_powerdown();
 166              		.loc 1 170 0
 167 00b0 FEFFFFEA 		b	calypso_sim_powerdown
 168              	.L18:
 169              		.align	2
 170              	.L17:
 171 00b4 00000000 		.word	.LANCHOR0
 172 00b8 00F0FFFF 		.word	-4096
 173 00bc FF0F0000 		.word	4095
 174 00c0 11000000 		.word	.LC1
 175              		.cfi_endproc
 176              	.LFE62:
 178              		.section	.text.main,"ax",%progbits
 179              		.align	2
 180              		.global	main
 182              	main:
 183              	.LFB60:
  61:apps/layer1/main.c **** {
 184              		.loc 1 61 0
 185              		.cfi_startproc
 186              		@ args = 0, pretend = 0, frame = 20
 187              		@ frame_needed = 0, uses_anonymous_args = 0
 188              	.LVL13:
 189 0000 F0402DE9 		stmfd	sp!, {r4, r5, r6, r7, lr}
 190              	.LCFI2:
 191              		.cfi_def_cfa_offset 20
  65:apps/layer1/main.c **** 	board_init(1);
 192              		.loc 1 65 0
 193 0004 0100A0E3 		mov	r0, #1
  61:apps/layer1/main.c **** {
 194              		.loc 1 61 0
 195 0008 14D04DE2 		sub	sp, sp, #20
 196              	.LCFI3:
 197              		.cfi_def_cfa_offset 40
  68:apps/layer1/main.c **** 	puts(hr);
 198              		.loc 1 68 0
 199 000c 44419FE5 		ldr	r4, .L21
 200              		.cfi_offset 14, -4
 201              		.cfi_offset 7, -8
 202              		.cfi_offset 6, -12
 203              		.cfi_offset 5, -16
 204              		.cfi_offset 4, -20
  65:apps/layer1/main.c **** 	board_init(1);
 205              		.loc 1 65 0
 206 0010 FEFFFFEB 		bl	board_init
  67:apps/layer1/main.c **** 	puts("\n\nOsmocomBB Layer 1 (revision " GIT_REVISION ")\n");
 207              		.loc 1 67 0
 208 0014 40019FE5 		ldr	r0, .L21+4
 209 0018 FEFFFFEB 		bl	puts
  68:apps/layer1/main.c **** 	puts(hr);
 210              		.loc 1 68 0
 211 001c 000094E5 		ldr	r0, [r4, #0]
 212 0020 FEFFFFEB 		bl	puts
  71:apps/layer1/main.c **** 	dump_dev_id();
 213              		.loc 1 71 0
 214 0024 FEFFFFEB 		bl	dump_dev_id
  72:apps/layer1/main.c **** 	puts(hr);
 215              		.loc 1 72 0
 216 0028 000094E5 		ldr	r0, [r4, #0]
 217 002c FEFFFFEB 		bl	puts
 218              	.LBB36:
 219              	.LBB37:
 220              		.file 3 "include/fb/framebuffer.h"
   1:include/fb/framebuffer.h **** #ifndef _FB_FRAMEBUFFER_H
   2:include/fb/framebuffer.h **** #define _FB_FRAMEBUFFER_H
   3:include/fb/framebuffer.h **** 
   4:include/fb/framebuffer.h **** #include <fb/font.h>
   5:include/fb/framebuffer.h **** #include <stdint.h>
   6:include/fb/framebuffer.h **** 
   7:include/fb/framebuffer.h **** /* color is encoded as <special><red><green><blue> */
   8:include/fb/framebuffer.h **** /* if a color is "special", then the RGB components most likely
   9:include/fb/framebuffer.h ****    don't make sense. Use "special" colours when you have to
  10:include/fb/framebuffer.h ****    mask out bits with transparency or you have to encode
  11:include/fb/framebuffer.h ****    colours in a fixed color palette... */
  12:include/fb/framebuffer.h **** 
  13:include/fb/framebuffer.h **** #define FB_COLOR_WHITE		0x00ffffffU
  14:include/fb/framebuffer.h **** #define FB_COLOR_BLACK		0x00000000U
  15:include/fb/framebuffer.h **** #define FB_COLOR_TRANSP		0x01ffffffU
  16:include/fb/framebuffer.h **** 
  17:include/fb/framebuffer.h **** #define FB_COLOR_RGB(r,g,b) ((((r) & 0xff)<<16)|(((g)&0xff)<<8)|((b)&0xff))
  18:include/fb/framebuffer.h **** #define FB_COLOR_RED		FB_COLOR_RGB(0xff,0x00,0x00)
  19:include/fb/framebuffer.h **** #define FB_COLOR_GREEN		FB_COLOR_RGB(0x00,0xff,0x00)
  20:include/fb/framebuffer.h **** #define FB_COLOR_BLUE		FB_COLOR_RGB(0x00,0x00,0xff)
  21:include/fb/framebuffer.h **** 
  22:include/fb/framebuffer.h **** /* encode */
  23:include/fb/framebuffer.h **** 
  24:include/fb/framebuffer.h **** /* decode */
  25:include/fb/framebuffer.h **** #define FB_COLOR_IS_SPECIAL(v)     (!!((v) & 0xff000000U))
  26:include/fb/framebuffer.h **** #define FB_COLOR_TO_R(v)		(((v)>>16) & 0xff)
  27:include/fb/framebuffer.h **** #define FB_COLOR_TO_G(v)		(((v)>> 8) & 0xff)
  28:include/fb/framebuffer.h **** #define FB_COLOR_TO_B(v)		( (v)      & 0xff)
  29:include/fb/framebuffer.h **** 
  30:include/fb/framebuffer.h **** struct framebuffer {
  31:include/fb/framebuffer.h **** 	char name[8];				// keep it short!
  32:include/fb/framebuffer.h **** 	void (*init)();				// (re)initialize
  33:include/fb/framebuffer.h **** 	void (*clear)();			// clear display
  34:include/fb/framebuffer.h **** 	void (*boxto)(uint16_t x,uint16_t y);	// draw box to xy
  35:include/fb/framebuffer.h **** 	void (*lineto)(uint16_t x,uint16_t y);	// draw line to xy
  36:include/fb/framebuffer.h **** 	int (*putstr)(char *c,int maxwidth);	// put text in current font to fb
  37:include/fb/framebuffer.h **** 	void (*flush)();			// flush changes
  38:include/fb/framebuffer.h **** 
  39:include/fb/framebuffer.h **** 	uint16_t width,height;			// width/height of fb
  40:include/fb/framebuffer.h **** 	uint16_t cursor_x,cursor_y;		// current cursor
  41:include/fb/framebuffer.h **** 	uint32_t fg_color,bg_color;		// current fg/bg color
  42:include/fb/framebuffer.h **** 	enum fb_font_id font;			// current font
  43:include/fb/framebuffer.h **** };
  44:include/fb/framebuffer.h **** 
  45:include/fb/framebuffer.h **** /* there is a single framebuffer, the specific driver defines
  46:include/fb/framebuffer.h ****    the "framebuffer" symbol */
  47:include/fb/framebuffer.h **** extern struct framebuffer *framebuffer;
  48:include/fb/framebuffer.h **** 
  49:include/fb/framebuffer.h **** static inline void
  50:include/fb/framebuffer.h **** fb_init(){
  51:include/fb/framebuffer.h **** 	framebuffer->init();
  52:include/fb/framebuffer.h **** }
  53:include/fb/framebuffer.h **** 
  54:include/fb/framebuffer.h **** static inline void
  55:include/fb/framebuffer.h **** fb_clear(){
  56:include/fb/framebuffer.h **** 	framebuffer->clear();
 221              		.loc 3 56 0
 222 0030 28519FE5 		ldr	r5, .L21+8
 223              	.LBE37:
 224              	.LBE36:
  74:apps/layer1/main.c **** 	keypad_set_handler(&key_handler);
 225              		.loc 1 74 0
 226 0034 28019FE5 		ldr	r0, .L21+12
 227 0038 FEFFFFEB 		bl	keypad_set_handler
  77:apps/layer1/main.c **** 	calypso_clk_dump();
 228              		.loc 1 77 0
 229 003c FEFFFFEB 		bl	calypso_clk_dump
  78:apps/layer1/main.c **** 	puts(hr);
 230              		.loc 1 78 0
 231 0040 000094E5 		ldr	r0, [r4, #0]
 232 0044 FEFFFFEB 		bl	puts
 233              	.LBB39:
 234              	.LBB38:
 235              		.loc 3 56 0
 236 0048 003095E5 		ldr	r3, [r5, #0]
 237 004c 0FE0A0E1 		mov	lr, pc
 238 0050 0CF093E5 		ldr	pc, [r3, #12]
 239              	.LVL14:
 240              	.LBE38:
 241              	.LBE39:
 242              	.LBB40:
 243              	.LBB42:
  57:include/fb/framebuffer.h **** }
  58:include/fb/framebuffer.h **** 
  59:include/fb/framebuffer.h **** static inline void
  60:include/fb/framebuffer.h **** fb_boxto(uint16_t x,uint16_t y){
  61:include/fb/framebuffer.h **** 	framebuffer->boxto(x,y);
  62:include/fb/framebuffer.h **** }
  63:include/fb/framebuffer.h **** 
  64:include/fb/framebuffer.h **** static inline void
  65:include/fb/framebuffer.h **** fb_lineto(uint16_t x,uint16_t y){
  66:include/fb/framebuffer.h **** 	framebuffer->lineto(x,y);
  67:include/fb/framebuffer.h **** }
  68:include/fb/framebuffer.h **** 
  69:include/fb/framebuffer.h **** static inline int
  70:include/fb/framebuffer.h **** fb_putstr(char *str,int maxwidth){
  71:include/fb/framebuffer.h **** 	return framebuffer->putstr(str,maxwidth);
  72:include/fb/framebuffer.h **** }
  73:include/fb/framebuffer.h **** 
  74:include/fb/framebuffer.h **** static inline void
  75:include/fb/framebuffer.h **** fb_flush(){
  76:include/fb/framebuffer.h **** 	framebuffer->flush();
  77:include/fb/framebuffer.h **** }
  78:include/fb/framebuffer.h **** 
  79:include/fb/framebuffer.h **** static inline void
  80:include/fb/framebuffer.h **** fb_gotoxy(uint16_t x,uint16_t y){
  81:include/fb/framebuffer.h **** 	framebuffer->cursor_x = x;
  82:include/fb/framebuffer.h **** 	framebuffer->cursor_y = y;
  83:include/fb/framebuffer.h **** }
  84:include/fb/framebuffer.h **** 
  85:include/fb/framebuffer.h **** static inline void
  86:include/fb/framebuffer.h **** fb_setfg(uint32_t color){
  87:include/fb/framebuffer.h **** 	framebuffer->fg_color = color;
 244              		.loc 3 87 0
 245 0054 003095E5 		ldr	r3, [r5, #0]
 246              	.LBE42:
 247              	.LBE40:
 248              	.LBB44:
 249              	.LBB46:
  81:include/fb/framebuffer.h **** 	framebuffer->cursor_x = x;
 250              		.loc 3 81 0
 251 0058 0220A0E3 		mov	r2, #2	@ movhi
 252              	.LBE46:
 253              	.LBE44:
  87:apps/layer1/main.c **** 	fb_putstr("Layer 1",framebuffer->width-4);
 254              		.loc 1 87 0
 255 005c B012D3E1 		ldrh	r1, [r3, #32]
 256              	.LBB48:
 257              	.LBB41:
 258              		.loc 3 87 0
 259 0060 0060A0E3 		mov	r6, #0
 260              	.LBE41:
 261              	.LBE48:
 262              	.LBB49:
 263              	.LBB50:
  88:include/fb/framebuffer.h **** }
  89:include/fb/framebuffer.h **** 
  90:include/fb/framebuffer.h **** static inline void
  91:include/fb/framebuffer.h **** fb_setbg(uint32_t color){
  92:include/fb/framebuffer.h **** 	framebuffer->bg_color = color;
  93:include/fb/framebuffer.h **** }
  94:include/fb/framebuffer.h **** 
  95:include/fb/framebuffer.h **** static inline void
  96:include/fb/framebuffer.h **** fb_setfont(enum fb_font_id fid){
  97:include/fb/framebuffer.h **** 	framebuffer->font = fid;
 264              		.loc 3 97 0
 265 0064 0140A0E3 		mov	r4, #1
 266              	.LBE50:
 267              	.LBE49:
 268              	.LBB52:
 269              	.LBB45:
  81:include/fb/framebuffer.h **** 	framebuffer->cursor_x = x;
 270              		.loc 3 81 0
 271 0068 B422C3E1 		strh	r2, [r3, #36]	@ movhi
 272              	.LBE45:
 273              	.LBE52:
 274              	.LBB53:
 275              	.LBB54:
  92:include/fb/framebuffer.h **** 	framebuffer->bg_color = color;
 276              		.loc 3 92 0
 277 006c FF74E0E3 		mvn	r7, #-16777216
 278              	.LBE54:
 279              	.LBE53:
 280              	.LBB56:
 281              	.LBB47:
  82:include/fb/framebuffer.h **** 	framebuffer->cursor_y = y;
 282              		.loc 3 82 0
 283 0070 1420A0E3 		mov	r2, #20	@ movhi
 284 0074 B622C3E1 		strh	r2, [r3, #38]	@ movhi
 285              	.LBE47:
 286              	.LBE56:
 287              	.LBB57:
 288              	.LBB43:
  87:include/fb/framebuffer.h **** 	framebuffer->fg_color = color;
 289              		.loc 3 87 0
 290 0078 286083E5 		str	r6, [r3, #40]
 291              	.LVL15:
 292              	.LBE43:
 293              	.LBE57:
 294              	.LBB58:
 295              	.LBB55:
  92:include/fb/framebuffer.h **** 	framebuffer->bg_color = color;
 296              		.loc 3 92 0
 297 007c 2C7083E5 		str	r7, [r3, #44]
 298              	.LVL16:
 299              	.LBE55:
 300              	.LBE58:
 301              	.LBB59:
 302              	.LBB51:
 303              		.loc 3 97 0
 304 0080 304083E5 		str	r4, [r3, #48]
 305              	.LVL17:
 306              	.LBE51:
 307              	.LBE59:
 308              	.LBB60:
 309              	.LBB61:
  71:include/fb/framebuffer.h **** 	return framebuffer->putstr(str,maxwidth);
 310              		.loc 3 71 0
 311 0084 041041E2 		sub	r1, r1, #4
 312 0088 D8009FE5 		ldr	r0, .L21+16
 313 008c 0FE0A0E1 		mov	lr, pc
 314 0090 18F093E5 		ldr	pc, [r3, #24]
 315              	.LVL18:
 316              	.LBE61:
 317              	.LBE60:
 318              	.LBB62:
 319              	.LBB63:
  87:include/fb/framebuffer.h **** 	framebuffer->fg_color = color;
 320              		.loc 3 87 0
 321 0094 003095E5 		ldr	r3, [r5, #0]
 322 0098 FF28A0E3 		mov	r2, #16711680
 323              	.LBE63:
 324              	.LBE62:
  93:apps/layer1/main.c **** 	fb_boxto(framebuffer->width-3,38);
 325              		.loc 1 93 0
 326 009c B002D3E1 		ldrh	r0, [r3, #32]
 327              	.LBB65:
 328              	.LBB64:
  87:include/fb/framebuffer.h **** 	framebuffer->fg_color = color;
 329              		.loc 3 87 0
 330 00a0 282083E5 		str	r2, [r3, #40]
 331              	.LVL19:
 332              	.LBE64:
 333              	.LBE65:
 334              	.LBB66:
 335              	.LBB67:
  92:include/fb/framebuffer.h **** 	framebuffer->bg_color = color;
 336              		.loc 3 92 0
 337 00a4 FF20A0E3 		mov	r2, #255
 338 00a8 2C2083E5 		str	r2, [r3, #44]
 339              	.LVL20:
 340              	.LBE67:
 341              	.LBE66:
  93:apps/layer1/main.c **** 	fb_boxto(framebuffer->width-3,38);
 342              		.loc 1 93 0
 343 00ac 030040E2 		sub	r0, r0, #3
 344              	.LBB68:
 345              	.LBB69:
  81:include/fb/framebuffer.h **** 	framebuffer->cursor_x = x;
 346              		.loc 3 81 0
 347 00b0 0220A0E3 		mov	r2, #2	@ movhi
 348 00b4 B422C3E1 		strh	r2, [r3, #36]	@ movhi
 349              	.LBE69:
 350              	.LBE68:
  93:apps/layer1/main.c **** 	fb_boxto(framebuffer->width-3,38);
 351              		.loc 1 93 0
 352 00b8 0008A0E1 		mov	r0, r0, asl #16
 353              	.LBB71:
 354              	.LBB70:
  82:include/fb/framebuffer.h **** 	framebuffer->cursor_y = y;
 355              		.loc 3 82 0
 356 00bc 1920A0E3 		mov	r2, #25	@ movhi
 357 00c0 B622C3E1 		strh	r2, [r3, #38]	@ movhi
 358              	.LVL21:
 359              	.LBE70:
 360              	.LBE71:
 361              	.LBB72:
 362              	.LBB73:
  61:include/fb/framebuffer.h **** 	framebuffer->boxto(x,y);
 363              		.loc 3 61 0
 364 00c4 2008A0E1 		mov	r0, r0, lsr #16
 365 00c8 2610A0E3 		mov	r1, #38
 366 00cc 0FE0A0E1 		mov	lr, pc
 367 00d0 10F093E5 		ldr	pc, [r3, #16]
 368              	.LVL22:
 369              	.LBE73:
 370              	.LBE72:
 371              	.LBB74:
 372              	.LBB75:
  87:include/fb/framebuffer.h **** 	framebuffer->fg_color = color;
 373              		.loc 3 87 0
 374 00d4 003095E5 		ldr	r3, [r5, #0]
 375              	.LBE75:
 376              	.LBE74:
 377              	.LBB77:
 378              	.LBB78:
  81:include/fb/framebuffer.h **** 	framebuffer->cursor_x = x;
 379              		.loc 3 81 0
 380 00d8 0820A0E3 		mov	r2, #8	@ movhi
 381              	.LBE78:
 382              	.LBE77:
  98:apps/layer1/main.c **** 	fb_putstr("osmocom-bb",framebuffer->width-4);
 383              		.loc 1 98 0
 384 00dc B012D3E1 		ldrh	r1, [r3, #32]
 385              	.LBB80:
 386              	.LBB79:
  81:include/fb/framebuffer.h **** 	framebuffer->cursor_x = x;
 387              		.loc 3 81 0
 388 00e0 B422C3E1 		strh	r2, [r3, #36]	@ movhi
  82:include/fb/framebuffer.h **** 	framebuffer->cursor_y = y;
 389              		.loc 3 82 0
 390 00e4 2120A0E3 		mov	r2, #33	@ movhi
 391 00e8 B622C3E1 		strh	r2, [r3, #38]	@ movhi
 392              	.LBE79:
 393              	.LBE80:
 394              	.LBB81:
 395              	.LBB82:
  71:include/fb/framebuffer.h **** 	return framebuffer->putstr(str,maxwidth);
 396              		.loc 3 71 0
 397 00ec 041041E2 		sub	r1, r1, #4
 398              	.LBE82:
 399              	.LBE81:
 400              	.LBB84:
 401              	.LBB76:
  87:include/fb/framebuffer.h **** 	framebuffer->fg_color = color;
 402              		.loc 3 87 0
 403 00f0 287083E5 		str	r7, [r3, #40]
 404              	.LVL23:
 405              	.LBE76:
 406              	.LBE84:
 407              	.LBB85:
 408              	.LBB86:
 409              		.loc 3 97 0
 410 00f4 306083E5 		str	r6, [r3, #48]
 411              	.LVL24:
 412              	.LBE86:
 413              	.LBE85:
 414              	.LBB87:
 415              	.LBB83:
  71:include/fb/framebuffer.h **** 	return framebuffer->putstr(str,maxwidth);
 416              		.loc 3 71 0
 417 00f8 6C009FE5 		ldr	r0, .L21+20
 418 00fc 0FE0A0E1 		mov	lr, pc
 419 0100 18F093E5 		ldr	pc, [r3, #24]
 420              	.LBE83:
 421              	.LBE87:
 422              	.LBB88:
 423              	.LBB89:
  76:include/fb/framebuffer.h **** 	framebuffer->flush();
 424              		.loc 3 76 0
 425 0104 003095E5 		ldr	r3, [r5, #0]
 426 0108 0FE0A0E1 		mov	lr, pc
 427 010c 1CF093E5 		ldr	pc, [r3, #28]
 428              	.LBE89:
 429              	.LBE88:
 103:apps/layer1/main.c **** 	calypso_sim_init();
 430              		.loc 1 103 0
 431 0110 FEFFFFEB 		bl	calypso_sim_init
 105:apps/layer1/main.c **** 	puts("Power up simcard:\n");
 432              		.loc 1 105 0
 433 0114 54009FE5 		ldr	r0, .L21+24
 434 0118 FEFFFFEB 		bl	puts
 106:apps/layer1/main.c **** 	memset(atr,0,sizeof(atr));
 435              		.loc 1 106 0
 436 011c 0610A0E1 		mov	r1, r6
 437 0120 1420A0E3 		mov	r2, #20
 438 0124 0D00A0E1 		mov	r0, sp
 439 0128 FEFFFFEB 		bl	memset
 107:apps/layer1/main.c **** 	atrLength = calypso_sim_powerup(atr);
 440              		.loc 1 107 0
 441 012c 0D00A0E1 		mov	r0, sp
 442 0130 FEFFFFEB 		bl	calypso_sim_powerup
 443              	.LVL25:
 109:apps/layer1/main.c **** 	layer1_init();
 444              		.loc 1 109 0
 445 0134 FEFFFFEB 		bl	layer1_init
 111:apps/layer1/main.c **** 	tpu_frame_irq_en(1, 1);
 446              		.loc 1 111 0
 447 0138 0400A0E1 		mov	r0, r4
 448 013c 0410A0E1 		mov	r1, r4
 449 0140 FEFFFFEB 		bl	tpu_frame_irq_en
 450              	.L20:
 114:apps/layer1/main.c **** 		l1a_compl_execute();
 451              		.loc 1 114 0 discriminator 1
 452 0144 FEFFFFEB 		bl	l1a_compl_execute
 115:apps/layer1/main.c **** 		osmo_timers_update();
 453              		.loc 1 115 0 discriminator 1
 454 0148 FEFFFFEB 		bl	osmo_timers_update
 116:apps/layer1/main.c **** 		sim_handler();
 455              		.loc 1 116 0 discriminator 1
 456 014c FEFFFFEB 		bl	sim_handler
 117:apps/layer1/main.c **** 		l1a_l23_handler();
 457              		.loc 1 117 0 discriminator 1
 458 0150 FEFFFFEB 		bl	l1a_l23_handler
 459 0154 FAFFFFEA 		b	.L20
 460              	.L22:
 461              		.align	2
 462              	.L21:
 463 0158 00000000 		.word	.LANCHOR1
 464 015c 1E000000 		.word	.LC2
 465 0160 00000000 		.word	framebuffer
 466 0164 00000000 		.word	key_handler
 467 0168 65000000 		.word	.LC3
 468 016c 6D000000 		.word	.LC4
 469 0170 78000000 		.word	.LC5
 470              		.cfi_endproc
 471              	.LFE60:
 473              		.global	hr
 474              		.section	.rodata.str1.1,"aMS",%progbits,1
 475              	.LC0:
 476 0000 54535041 		.ascii	"TSPACT%u toggle\012\000"
 476      43542575 
 476      20746F67 
 476      676C650A 
 476      00
 477              	.LC1:
 478 0011 41464320 		.ascii	"AFC OUT: %u\012\000"
 478      4F55543A 
 478      2025750A 
 478      00
 479              	.LC2:
 480 001e 0A0A4F73 		.ascii	"\012\012OsmocomBB Layer 1 (revision osmocon_v0.0.0-"
 480      6D6F636F 
 480      6D424220 
 480      4C617965 
 480      72203120 
 481 004b 31383431 		.ascii	"1841-g903e2515-modified)\012\000"
 481      2D673930 
 481      33653235 
 481      31352D6D 
 481      6F646966 
 482              	.LC3:
 483 0065 4C617965 		.ascii	"Layer 1\000"
 483      72203100 
 484              	.LC4:
 485 006d 6F736D6F 		.ascii	"osmocom-bb\000"
 485      636F6D2D 
 485      626200
 486              	.LC5:
 487 0078 506F7765 		.ascii	"Power up simcard:\012\000"
 487      72207570 
 487      2073696D 
 487      63617264 
 487      3A0A00
 488              	.LC6:
 489 008b 3D3D3D3D 		.ascii	"==================================================="
 489      3D3D3D3D 
 489      3D3D3D3D 
 489      3D3D3D3D 
 489      3D3D3D3D 
 490 00be 3D3D3D3D 		.ascii	"===================\012\000"
 490      3D3D3D3D 
 490      3D3D3D3D 
 490      3D3D3D3D 
 490      3D3D3D0A 
 491              		.data
 492              		.align	2
 493              		.set	.LANCHOR1,. + 0
 496              	hr:
 497 0000 8B000000 		.word	.LC6
 498              		.bss
 499              		.align	2
 500              		.set	.LANCHOR0,. + 0
 503              	afcout:
 504 0000 00000000 		.space	4
 505              		.text
 506              	.Letext0: